

Microchip MPLAB XC8 Assembler V2.40 build 20220703182018 
                                                                                               Fri Mar 17 18:49:00 2023

Microchip MPLAB XC8 C Compiler v2.40 (Free license) build 20220703182018 Og1 
     1                           	processor	16F877A
     2                           	pagewidth 120
     3                           	opt	flic
     4                           	psect	idataBANK1,global,class=CODE,delta=2,noexec
     5                           	psect	cinit,global,class=CODE,merge=1,delta=2
     6                           	psect	bssBANK1,global,class=BANK1,space=1,delta=1,noexec
     7                           	psect	dataBANK1,global,class=BANK1,space=1,delta=1,noexec
     8                           	psect	inittext,global,class=CODE,delta=2
     9                           	psect	cstackBANK1,global,class=BANK1,space=1,delta=1,noexec
    10                           	psect	cstackCOMMON,global,class=COMMON,space=1,delta=1,noexec
    11                           	psect	cstackBANK0,global,class=BANK0,space=1,delta=1,noexec
    12                           	psect	maintext,global,class=CODE,split=1,delta=2
    13                           	psect	text1,local,class=CODE,merge=1,delta=2
    14                           	psect	text2,local,class=CODE,merge=1,delta=2
    15                           	psect	text3,local,class=CODE,merge=1,delta=2
    16                           	psect	text4,local,class=CODE,merge=1,delta=2
    17                           	psect	text5,local,class=CODE,merge=1,delta=2
    18                           	psect	text6,local,class=CODE,merge=1,delta=2
    19                           	psect	text7,local,class=CODE,merge=1,delta=2
    20                           	psect	text8,local,class=CODE,merge=1,delta=2
    21                           	psect	text9,local,class=CODE,merge=1,delta=2,group=1
    22                           	psect	text10,local,class=CODE,merge=1,delta=2,group=1
    23                           	psect	text11,local,class=CODE,merge=1,delta=2,group=1
    24                           	psect	text12,local,class=CODE,merge=1,delta=2,group=1
    25                           	psect	text13,local,class=CODE,merge=1,delta=2,group=1
    26                           	psect	text14,local,class=CODE,merge=1,delta=2
    27                           	psect	text15,local,class=CODE,merge=1,delta=2,group=1
    28                           	psect	idloc,global,abs,ovrld,class=IDLOC,space=5,delta=2,noexec
    29                           	psect	config,global,abs,ovrld,class=CONFIG,space=4,delta=2,noexec
    30                           	dabs	1,0x7E,2
    31     0000                     
    32                           ; Version 2.40
    33                           ; Generated 17/11/2021 GMT
    34                           ; 
    35                           ; Copyright © 2021, Microchip Technology Inc. and its subsidiaries ("Microchip")
    36                           ; All rights reserved.
    37                           ; 
    38                           ; This software is developed by Microchip Technology Inc. and its subsidiaries ("Microch
      +                          ip").
    39                           ; 
    40                           ; Redistribution and use in source and binary forms, with or without modification, are
    41                           ; permitted provided that the following conditions are met:
    42                           ; 
    43                           ;     1. Redistributions of source code must retain the above copyright notice, this lis
      +                          t of
    44                           ;        conditions and the following disclaimer.
    45                           ; 
    46                           ;     2. Redistributions in binary form must reproduce the above copyright notice, this 
      +                          list
    47                           ;        of conditions and the following disclaimer in the documentation and/or other
    48                           ;        materials provided with the distribution. Publication is not required when
    49                           ;        this file is used in an embedded application.
    50                           ; 
    51                           ;     3. Microchip's name may not be used to endorse or promote products derived from th
      +                          is
    52                           ;        software without specific prior written permission.
    53                           ; 
    54                           ; THIS SOFTWARE IS PROVIDED BY MICROCHIP "AS IS" AND ANY EXPRESS OR IMPLIED WARRANTIES,
    55                           ; INCLUDING, BUT NOT LIMITED TO, THE IMPLIED WARRANTIES OF MERCHANTABILITY AND FITNESS F
      +                          OR
    56                           ; PURPOSE ARE DISCLAIMED.  IN NO EVENT SHALL MICROCHIP BE LIABLE FOR ANY DIRECT, INDIREC
      +                          T,
    57                           ; INCIDENTAL, SPECIAL, EXEMPLARY, OR CONSEQUENTIAL DAMAGES (INCLUDING BUT NOT LIMITED TO
    58                           ; PROCUREMENT OF SUBSTITUTE GOODS OR SERVICES; LOSS OF USE, DATA OR PROFITS; OR BUSINESS
    59                           ; INTERRUPTION) HOWSOEVER CAUSED AND ON ANY THEORY OF LIABILITY, WHETHER IN CONTRACT, ST
      +                          RICT
    60                           ; LIABILITY, OR TORT (INCLUDING NEGLIGENCE OR OTHERWISE) ARISING IN ANY WAY OUT OF THE U
      +                          SE OF
    61                           ; THIS SOFTWARE, EVEN IF ADVISED OF THE POSSIBILITY OF SUCH DAMAGE.
    62                           ; 
    63                           ; 
    64                           ; Code-generator required, PIC16F877A Definitions
    65                           ; 
    66                           ; SFR Addresses
    67     0000                     	;# 
    68     0001                     	;# 
    69     0002                     	;# 
    70     0003                     	;# 
    71     0004                     	;# 
    72     0005                     	;# 
    73     0006                     	;# 
    74     0007                     	;# 
    75     0008                     	;# 
    76     0009                     	;# 
    77     000A                     	;# 
    78     000B                     	;# 
    79     000C                     	;# 
    80     000D                     	;# 
    81     000E                     	;# 
    82     000E                     	;# 
    83     000F                     	;# 
    84     0010                     	;# 
    85     0011                     	;# 
    86     0012                     	;# 
    87     0013                     	;# 
    88     0014                     	;# 
    89     0015                     	;# 
    90     0015                     	;# 
    91     0016                     	;# 
    92     0017                     	;# 
    93     0018                     	;# 
    94     0019                     	;# 
    95     001A                     	;# 
    96     001B                     	;# 
    97     001B                     	;# 
    98     001C                     	;# 
    99     001D                     	;# 
   100     001E                     	;# 
   101     001F                     	;# 
   102     0081                     	;# 
   103     0085                     	;# 
   104     0086                     	;# 
   105     0087                     	;# 
   106     0088                     	;# 
   107     0089                     	;# 
   108     008C                     	;# 
   109     008D                     	;# 
   110     008E                     	;# 
   111     0091                     	;# 
   112     0092                     	;# 
   113     0093                     	;# 
   114     0094                     	;# 
   115     0098                     	;# 
   116     0099                     	;# 
   117     009C                     	;# 
   118     009D                     	;# 
   119     009E                     	;# 
   120     009F                     	;# 
   121     010C                     	;# 
   122     010D                     	;# 
   123     010E                     	;# 
   124     010F                     	;# 
   125     018C                     	;# 
   126     018D                     	;# 
   127     0000                     	;# 
   128     0001                     	;# 
   129     0002                     	;# 
   130     0003                     	;# 
   131     0004                     	;# 
   132     0005                     	;# 
   133     0006                     	;# 
   134     0007                     	;# 
   135     0008                     	;# 
   136     0009                     	;# 
   137     000A                     	;# 
   138     000B                     	;# 
   139     000C                     	;# 
   140     000D                     	;# 
   141     000E                     	;# 
   142     000E                     	;# 
   143     000F                     	;# 
   144     0010                     	;# 
   145     0011                     	;# 
   146     0012                     	;# 
   147     0013                     	;# 
   148     0014                     	;# 
   149     0015                     	;# 
   150     0015                     	;# 
   151     0016                     	;# 
   152     0017                     	;# 
   153     0018                     	;# 
   154     0019                     	;# 
   155     001A                     	;# 
   156     001B                     	;# 
   157     001B                     	;# 
   158     001C                     	;# 
   159     001D                     	;# 
   160     001E                     	;# 
   161     001F                     	;# 
   162     0081                     	;# 
   163     0085                     	;# 
   164     0086                     	;# 
   165     0087                     	;# 
   166     0088                     	;# 
   167     0089                     	;# 
   168     008C                     	;# 
   169     008D                     	;# 
   170     008E                     	;# 
   171     0091                     	;# 
   172     0092                     	;# 
   173     0093                     	;# 
   174     0094                     	;# 
   175     0098                     	;# 
   176     0099                     	;# 
   177     009C                     	;# 
   178     009D                     	;# 
   179     009E                     	;# 
   180     009F                     	;# 
   181     010C                     	;# 
   182     010D                     	;# 
   183     010E                     	;# 
   184     010F                     	;# 
   185     018C                     	;# 
   186     018D                     	;# 
   187     0000                     	;# 
   188     0001                     	;# 
   189     0002                     	;# 
   190     0003                     	;# 
   191     0004                     	;# 
   192     0005                     	;# 
   193     0006                     	;# 
   194     0007                     	;# 
   195     0008                     	;# 
   196     0009                     	;# 
   197     000A                     	;# 
   198     000B                     	;# 
   199     000C                     	;# 
   200     000D                     	;# 
   201     000E                     	;# 
   202     000E                     	;# 
   203     000F                     	;# 
   204     0010                     	;# 
   205     0011                     	;# 
   206     0012                     	;# 
   207     0013                     	;# 
   208     0014                     	;# 
   209     0015                     	;# 
   210     0015                     	;# 
   211     0016                     	;# 
   212     0017                     	;# 
   213     0018                     	;# 
   214     0019                     	;# 
   215     001A                     	;# 
   216     001B                     	;# 
   217     001B                     	;# 
   218     001C                     	;# 
   219     001D                     	;# 
   220     001E                     	;# 
   221     001F                     	;# 
   222     0081                     	;# 
   223     0085                     	;# 
   224     0086                     	;# 
   225     0087                     	;# 
   226     0088                     	;# 
   227     0089                     	;# 
   228     008C                     	;# 
   229     008D                     	;# 
   230     008E                     	;# 
   231     0091                     	;# 
   232     0092                     	;# 
   233     0093                     	;# 
   234     0094                     	;# 
   235     0098                     	;# 
   236     0099                     	;# 
   237     009C                     	;# 
   238     009D                     	;# 
   239     009E                     	;# 
   240     009F                     	;# 
   241     010C                     	;# 
   242     010D                     	;# 
   243     010E                     	;# 
   244     010F                     	;# 
   245     018C                     	;# 
   246     018D                     	;# 
   247                           
   248                           	psect	idataBANK1
   249     0E46                     __pidataBANK1:
   250                           
   251                           ;initializer for _TMR2PRESCALE
   252     0E46  3404               	retlw	4
   253     0E47  3400               	retlw	0
   254     0E48  3400               	retlw	0
   255     0E49  3400               	retlw	0
   256                           
   257                           ;initializer for _freq
   258     0E4A  34E8               	retlw	232
   259     0E4B  3403               	retlw	3
   260     0E4C  3400               	retlw	0
   261     0E4D  3400               	retlw	0
   262     001B                     _CCPR2L	set	27
   263     0015                     _CCPR1L	set	21
   264     0009                     _PORTE	set	9
   265     0008                     _PORTD	set	8
   266     0007                     _PORTC	set	7
   267     0006                     _PORTB	set	6
   268     0005                     _PORTA	set	5
   269     000B                     _INTCONbits	set	11
   270     00EA                     _CCP2M2	set	234
   271     00EB                     _CCP2M3	set	235
   272     0092                     _TMR2ON	set	146
   273     00BA                     _CCP1M2	set	186
   274     00BB                     _CCP1M3	set	187
   275     00EC                     _CCP2Y	set	236
   276     00ED                     _CCP2X	set	237
   277     00BC                     _CCP1Y	set	188
   278     00BD                     _CCP1X	set	189
   279     0092                     _PR2	set	146
   280     009F                     _ADCON1	set	159
   281     0089                     _TRISE	set	137
   282     0088                     _TRISD	set	136
   283     0087                     _TRISC	set	135
   284     0086                     _TRISB	set	134
   285     0085                     _TRISA	set	133
   286     0081                     _OPTION_REGbits	set	129
   287     0439                     _TRISC1	set	1081
   288     043A                     _TRISC2	set	1082
   289                           
   290                           	psect	cinit
   291     07EA                     start_initialization:	
   292                           ; #config settings
   293                           
   294     07EA                     __initialization:
   295                           
   296                           ; Initialize objects allocated to BANK1
   297     07EA  1383               	bcf	3,7	;select IRP bank0
   298     07EB  30A8               	movlw	low (__pdataBANK1+8)
   299     07EC  00FD               	movwf	btemp+-1
   300     07ED  300E               	movlw	high __pidataBANK1
   301     07EE  00FE               	movwf	btemp
   302     07EF  3046               	movlw	low __pidataBANK1
   303     07F0  00FF               	movwf	btemp+1
   304     07F1  30A0               	movlw	low __pdataBANK1
   305     07F2  0084               	movwf	4
   306     07F3  120A  158A  2664  120A  118A  	fcall	init_ram0
   307                           
   308                           ; Clear objects allocated to BANK1
   309     07F8  1683               	bsf	3,5	;RP0=1, select bank1
   310     07F9  1303               	bcf	3,6	;RP1=0, select bank1
   311     07FA  01B0               	clrf	__pbssBANK1& (0+127)
   312     07FB  01B1               	clrf	(__pbssBANK1+1)& (0+127)
   313     07FC                     end_of_initialization:	
   314                           ;End of C runtime variable initialization code
   315                           
   316     07FC                     __end_of__initialization:
   317     07FC  0183               	clrf	3
   318     07FD  120A  158A  2E89   	ljmp	_main	;jump to C main() function
   319                           
   320                           	psect	bssBANK1
   321     00B0                     __pbssBANK1:
   322     00B0                     _duty:
   323     00B0                     	ds	2
   324                           
   325                           	psect	dataBANK1
   326     00A0                     __pdataBANK1:
   327     00A0                     _TMR2PRESCALE:
   328     00A0                     	ds	4
   329     00A4                     _freq:
   330     00A4                     	ds	4
   331                           
   332                           	psect	inittext
   333     0E60                     init_fetch0:	
   334                           ;	Called with low address in FSR and high address in W
   335                           
   336     0E60  087E               	movf	btemp,w
   337     0E61  008A               	movwf	10
   338     0E62  087F               	movf	btemp+1,w
   339     0E63  0082               	movwf	2
   340     0E64                     init_ram0:	
   341                           ;Called with:
   342                           ;	high address of idata address in btemp 
   343                           ;	low address of idata address in btemp+1 
   344                           ;	low address of data in FSR
   345                           ;	high address + 1 of data in btemp-1
   346                           
   347     0E64  120A  158A  2660  120A  158A  	fcall	init_fetch0
   348     0E69  0080               	movwf	0
   349     0E6A  0A84               	incf	4,f
   350     0E6B  0804               	movf	4,w
   351     0E6C  067D               	xorwf	btemp+-1,w
   352     0E6D  1903               	btfsc	3,2
   353     0E6E  3400               	retlw	0
   354     0E6F  0AFF               	incf	btemp+1,f
   355     0E70  1903               	btfsc	3,2
   356     0E71  0AFE               	incf	btemp,f
   357     0E72  2E64               	goto	init_ram0
   358                           
   359                           	psect	cstackBANK1
   360     00A8                     __pcstackBANK1:
   361     00A8                     ??___fltol:
   362                           
   363                           ; 1 bytes @ 0x0
   364     00A8                     	ds	4
   365     00AC                     ?_PWM2_Duty:
   366     00AC                     ?_PWM1_Duty:	
   367                           ; 2 bytes @ 0x4
   368                           
   369     00AC                     PWM1_Duty@duty:	
   370                           ; 2 bytes @ 0x4
   371                           
   372     00AC                     PWM2_Duty@duty:	
   373                           ; 2 bytes @ 0x4
   374                           
   375                           
   376                           ; 2 bytes @ 0x4
   377     00AC                     	ds	2
   378     00AE                     ??_PWM2_Duty:
   379     00AE                     ??_PWM1_Duty:	
   380                           ; 1 bytes @ 0x6
   381                           
   382                           
   383                           ; 1 bytes @ 0x6
   384     00AE                     	ds	2
   385                           
   386                           	psect	cstackCOMMON
   387     0070                     __pcstackCOMMON:
   388     0070                     ?_PWM_ST:
   389     0070                     ?_inicia:	
   390                           ; 1 bytes @ 0x0
   391                           
   392     0070                     ??_inicia:	
   393                           ; 1 bytes @ 0x0
   394                           
   395     0070                     ?_main:	
   396                           ; 1 bytes @ 0x0
   397                           
   398     0070                     ?_PWM1_Start:	
   399                           ; 1 bytes @ 0x0
   400                           
   401     0070                     ??_PWM1_Start:	
   402                           ; 1 bytes @ 0x0
   403                           
   404     0070                     ?_PWM2_Start:	
   405                           ; 1 bytes @ 0x0
   406                           
   407     0070                     ??_PWM2_Start:	
   408                           ; 1 bytes @ 0x0
   409                           
   410     0070                     ?__Umul8_16:	
   411                           ; 1 bytes @ 0x0
   412                           
   413     0070                     ?___aldiv:	
   414                           ; 2 bytes @ 0x0
   415                           
   416     0070                     __Umul8_16@multiplicand:	
   417                           ; 4 bytes @ 0x0
   418                           
   419     0070                     ___aldiv@divisor:	
   420                           ; 1 bytes @ 0x0
   421                           
   422                           
   423                           ; 4 bytes @ 0x0
   424     0070                     	ds	2
   425     0072                     ??__Umul8_16:
   426                           
   427                           ; 1 bytes @ 0x2
   428     0072                     	ds	2
   429     0074                     __Umul8_16@product:
   430     0074                     ___aldiv@dividend:	
   431                           ; 2 bytes @ 0x4
   432                           
   433                           
   434                           ; 4 bytes @ 0x4
   435     0074                     	ds	2
   436     0076                     __Umul8_16@word_mpld:
   437                           
   438                           ; 2 bytes @ 0x6
   439     0076                     	ds	2
   440     0078                     ??___aldiv:
   441     0078                     __Umul8_16@multiplier:	
   442                           ; 1 bytes @ 0x8
   443                           
   444                           
   445                           ; 1 bytes @ 0x8
   446     0078                     	ds	1
   447     0079                     ??_PWM_Max_Duty:
   448     0079                     ??_PWM1_Init:	
   449                           ; 1 bytes @ 0x9
   450                           
   451     0079                     ??_PWM2_Init:	
   452                           ; 1 bytes @ 0x9
   453                           
   454                           
   455                           ; 1 bytes @ 0x9
   456     0079                     	ds	4
   457     007D                     ??_PWM_ST:
   458     007D                     ??_main:	
   459                           ; 1 bytes @ 0xD
   460                           
   461                           
   462                           	psect	cstackBANK0
   463     0020                     __pcstackBANK0:	
   464                           ; 1 bytes @ 0xD
   465                           
   466     0020                     ___aldiv@counter:
   467                           
   468                           ; 1 bytes @ 0x0
   469     0020                     	ds	1
   470     0021                     ___aldiv@sign:
   471                           
   472                           ; 1 bytes @ 0x1
   473     0021                     	ds	1
   474     0022                     ___aldiv@quotient:
   475                           
   476                           ; 4 bytes @ 0x2
   477     0022                     	ds	4
   478     0026                     ?_PWM_Max_Duty:
   479     0026                     ?_PWM1_Init:	
   480                           ; 2 bytes @ 0x6
   481                           
   482     0026                     ?_PWM2_Init:	
   483                           ; 2 bytes @ 0x6
   484                           
   485     0026                     PWM1_Init@freq:	
   486                           ; 2 bytes @ 0x6
   487                           
   488     0026                     PWM2_Init@freq:	
   489                           ; 4 bytes @ 0x6
   490                           
   491                           
   492                           ; 4 bytes @ 0x6
   493     0026                     	ds	2
   494     0028                     ?___xxtofl:
   495     0028                     ___xxtofl@val:	
   496                           ; 4 bytes @ 0x8
   497                           
   498                           
   499                           ; 4 bytes @ 0x8
   500     0028                     	ds	4
   501     002C                     ??___xxtofl:
   502                           
   503                           ; 1 bytes @ 0xC
   504     002C                     	ds	4
   505     0030                     ___xxtofl@sign:
   506                           
   507                           ; 1 bytes @ 0x10
   508     0030                     	ds	1
   509     0031                     ___xxtofl@exp:
   510                           
   511                           ; 1 bytes @ 0x11
   512     0031                     	ds	1
   513     0032                     ___xxtofl@arg:
   514                           
   515                           ; 4 bytes @ 0x12
   516     0032                     	ds	4
   517     0036                     ?___fldiv:
   518     0036                     ___fldiv@a:	
   519                           ; 4 bytes @ 0x16
   520                           
   521                           
   522                           ; 4 bytes @ 0x16
   523     0036                     	ds	4
   524     003A                     ___fldiv@b:
   525                           
   526                           ; 4 bytes @ 0x1A
   527     003A                     	ds	4
   528     003E                     ??___fldiv:
   529                           
   530                           ; 1 bytes @ 0x1E
   531     003E                     	ds	5
   532     0043                     ___fldiv@rem:
   533                           
   534                           ; 4 bytes @ 0x23
   535     0043                     	ds	4
   536     0047                     ___fldiv@sign:
   537                           
   538                           ; 1 bytes @ 0x27
   539     0047                     	ds	1
   540     0048                     ___fldiv@new_exp:
   541                           
   542                           ; 2 bytes @ 0x28
   543     0048                     	ds	2
   544     004A                     ___fldiv@grs:
   545                           
   546                           ; 4 bytes @ 0x2A
   547     004A                     	ds	4
   548     004E                     ___fldiv@bexp:
   549                           
   550                           ; 1 bytes @ 0x2E
   551     004E                     	ds	1
   552     004F                     ___fldiv@aexp:
   553                           
   554                           ; 1 bytes @ 0x2F
   555     004F                     	ds	1
   556     0050                     ?___flmul:
   557     0050                     ___flmul@b:	
   558                           ; 4 bytes @ 0x30
   559                           
   560                           
   561                           ; 4 bytes @ 0x30
   562     0050                     	ds	4
   563     0054                     ___flmul@a:
   564                           
   565                           ; 4 bytes @ 0x34
   566     0054                     	ds	4
   567     0058                     ??___flmul:
   568                           
   569                           ; 1 bytes @ 0x38
   570     0058                     	ds	5
   571     005D                     ___flmul@sign:
   572                           
   573                           ; 1 bytes @ 0x3D
   574     005D                     	ds	1
   575     005E                     ___flmul@grs:
   576                           
   577                           ; 4 bytes @ 0x3E
   578     005E                     	ds	4
   579     0062                     ___flmul@aexp:
   580                           
   581                           ; 1 bytes @ 0x42
   582     0062                     	ds	1
   583     0063                     ___flmul@bexp:
   584                           
   585                           ; 1 bytes @ 0x43
   586     0063                     	ds	1
   587     0064                     ___flmul@prod:
   588                           
   589                           ; 4 bytes @ 0x44
   590     0064                     	ds	4
   591     0068                     ___flmul@temp:
   592                           
   593                           ; 2 bytes @ 0x48
   594     0068                     	ds	2
   595     006A                     ?___fltol:
   596     006A                     ___fltol@f1:	
   597                           ; 4 bytes @ 0x4A
   598                           
   599                           
   600                           ; 4 bytes @ 0x4A
   601     006A                     	ds	4
   602     006E                     ___fltol@sign1:
   603                           
   604                           ; 1 bytes @ 0x4E
   605     006E                     	ds	1
   606     006F                     ___fltol@exp1:
   607                           
   608                           ; 1 bytes @ 0x4F
   609     006F                     	ds	1
   610                           
   611                           	psect	maintext
   612     0E89                     __pmaintext:	
   613 ;;
   614 ;;Main: autosize = 0, tempsize = 0, incstack = 0, save=0
   615 ;;
   616 ;; *************** function _main *****************
   617 ;; Defined at:
   618 ;;		line 74 in file "WIPLOZ.c"
   619 ;; Parameters:    Size  Location     Type
   620 ;;		None
   621 ;; Auto vars:     Size  Location     Type
   622 ;;		None
   623 ;; Return value:  Size  Location     Type
   624 ;;                  1    wreg      void 
   625 ;; Registers used:
   626 ;;		wreg, status,2, status,0, btemp+1, pclath, cstack
   627 ;; Tracked objects:
   628 ;;		On entry : B00/0
   629 ;;		On exit  : 0/0
   630 ;;		Unchanged: 0/0
   631 ;; Data sizes:     COMMON   BANK0   BANK1   BANK3   BANK2
   632 ;;      Params:         0       0       0       0       0
   633 ;;      Locals:         0       0       0       0       0
   634 ;;      Temps:          0       0       0       0       0
   635 ;;      Totals:         0       0       0       0       0
   636 ;;Total ram usage:        0 bytes
   637 ;; Hardware stack levels required when called: 4
   638 ;; This function calls:
   639 ;;		_PWM2_Duty
   640 ;;		_PWM_ST
   641 ;;		_inicia
   642 ;; This function is called by:
   643 ;;		Startup code after reset
   644 ;; This function uses a non-reentrant model
   645 ;;
   646                           
   647     0E89                     _main:	
   648                           ;psect for function _main
   649                           
   650     0E89                     l1655:	
   651                           ;incstack = 0
   652                           ; Regs used in _main: [wreg+status,2+status,0+btemp+1+pclath+cstack]
   653                           
   654                           
   655                           ;WIPLOZ.c: 75: inicia();
   656     0E89  120A  158A  2673  120A  158A  	fcall	_inicia
   657     0E8E                     l1657:
   658                           
   659                           ;WIPLOZ.c: 76: PWM_ST();
   660     0E8E  120A  158A  272F  120A  158A  	fcall	_PWM_ST
   661     0E93                     l1659:
   662                           
   663                           ;WIPLOZ.c: 77: PWM2_Duty(500);
   664     0E93  30F4               	movlw	244
   665     0E94  1683               	bsf	3,5	;RP0=1, select bank1
   666     0E95  1303               	bcf	3,6	;RP1=0, select bank1
   667     0E96  00AC               	movwf	PWM2_Duty@duty^(0+128)
   668     0E97  3001               	movlw	1
   669     0E98  00AD               	movwf	(PWM2_Duty@duty^(0+128)+1)
   670     0E99  120A  118A  217A  120A  158A  	fcall	_PWM2_Duty
   671     0E9E                     l44:	
   672                           ;WIPLOZ.c: 79: while(1){
   673                           
   674     0E9E                     l45:
   675     0E9E  2E9E               	goto	l44
   676     0E9F  120A  118A  2800   	ljmp	start
   677     0EA2                     __end_of_main:
   678                           
   679                           	psect	text1
   680     0E73                     __ptext1:	
   681 ;; *************** function _inicia *****************
   682 ;; Defined at:
   683 ;;		line 40 in file "WIPLOZ.c"
   684 ;; Parameters:    Size  Location     Type
   685 ;;		None
   686 ;; Auto vars:     Size  Location     Type
   687 ;;		None
   688 ;; Return value:  Size  Location     Type
   689 ;;                  1    wreg      void 
   690 ;; Registers used:
   691 ;;		wreg, status,2
   692 ;; Tracked objects:
   693 ;;		On entry : 0/0
   694 ;;		On exit  : 0/0
   695 ;;		Unchanged: 0/0
   696 ;; Data sizes:     COMMON   BANK0   BANK1   BANK3   BANK2
   697 ;;      Params:         0       0       0       0       0
   698 ;;      Locals:         0       0       0       0       0
   699 ;;      Temps:          0       0       0       0       0
   700 ;;      Totals:         0       0       0       0       0
   701 ;;Total ram usage:        0 bytes
   702 ;; Hardware stack levels used: 1
   703 ;; This function calls:
   704 ;;		Nothing
   705 ;; This function is called by:
   706 ;;		_main
   707 ;; This function uses a non-reentrant model
   708 ;;
   709                           
   710     0E73                     _inicia:	
   711                           ;psect for function _inicia
   712                           
   713     0E73                     l1153:	
   714                           ;incstack = 0
   715                           ; Regs used in _inicia: [wreg+status,2]
   716                           
   717                           
   718                           ;WIPLOZ.c: 43: INTCONbits.GIE = 1;
   719     0E73  178B               	bsf	11,7	;volatile
   720                           
   721                           ;WIPLOZ.c: 44: INTCONbits.PEIE = 1;
   722     0E74  170B               	bsf	11,6	;volatile
   723                           
   724                           ;WIPLOZ.c: 45: INTCONbits.INTE = 1;
   725     0E75  160B               	bsf	11,4	;volatile
   726                           
   727                           ;WIPLOZ.c: 49: OPTION_REGbits.INTEDG = 1;
   728     0E76  1683               	bsf	3,5	;RP0=1, select bank1
   729     0E77  1303               	bcf	3,6	;RP1=0, select bank1
   730     0E78  1701               	bsf	1,6	;volatile
   731     0E79                     l1155:
   732                           
   733                           ;WIPLOZ.c: 55: TRISA=0b000000;
   734     0E79  0185               	clrf	5	;volatile
   735                           
   736                           ;WIPLOZ.c: 56: TRISB=0b00000000;
   737     0E7A  0186               	clrf	6	;volatile
   738     0E7B                     l1157:
   739                           
   740                           ;WIPLOZ.c: 57: TRISC=0b10010000;
   741     0E7B  3090               	movlw	144
   742     0E7C  0087               	movwf	7	;volatile
   743     0E7D                     l1159:
   744                           
   745                           ;WIPLOZ.c: 58: TRISD=0b00000000;
   746     0E7D  0188               	clrf	8	;volatile
   747     0E7E                     l1161:
   748                           
   749                           ;WIPLOZ.c: 59: TRISE=0b000;
   750     0E7E  0189               	clrf	9	;volatile
   751     0E7F                     l1163:
   752                           
   753                           ;WIPLOZ.c: 63: ADCON1= 0x06;
   754     0E7F  3006               	movlw	6
   755     0E80  009F               	movwf	31	;volatile
   756                           
   757                           ;WIPLOZ.c: 65: PORTA=0b000000;
   758     0E81  1283               	bcf	3,5	;RP0=0, select bank0
   759     0E82  1303               	bcf	3,6	;RP1=0, select bank0
   760     0E83  0185               	clrf	5	;volatile
   761                           
   762                           ;WIPLOZ.c: 66: PORTB=0x00;
   763     0E84  0186               	clrf	6	;volatile
   764                           
   765                           ;WIPLOZ.c: 67: PORTC=0x00;
   766     0E85  0187               	clrf	7	;volatile
   767                           
   768                           ;WIPLOZ.c: 68: PORTD=0x00;
   769     0E86  0188               	clrf	8	;volatile
   770                           
   771                           ;WIPLOZ.c: 69: PORTE=0b000;
   772     0E87  0189               	clrf	9	;volatile
   773     0E88                     l39:
   774     0E88  0008               	return
   775     0E89                     __end_of_inicia:
   776                           
   777                           	psect	text2
   778     0F2F                     __ptext2:	
   779 ;; *************** function _PWM_ST *****************
   780 ;; Defined at:
   781 ;;		line 100 in file "PWM.c"
   782 ;; Parameters:    Size  Location     Type
   783 ;;		None
   784 ;; Auto vars:     Size  Location     Type
   785 ;;		None
   786 ;; Return value:  Size  Location     Type
   787 ;;                  1    wreg      void 
   788 ;; Registers used:
   789 ;;		wreg, status,2, status,0, btemp+1, pclath, cstack
   790 ;; Tracked objects:
   791 ;;		On entry : 0/0
   792 ;;		On exit  : 0/0
   793 ;;		Unchanged: 0/0
   794 ;; Data sizes:     COMMON   BANK0   BANK1   BANK3   BANK2
   795 ;;      Params:         0       0       0       0       0
   796 ;;      Locals:         0       0       0       0       0
   797 ;;      Temps:          0       0       0       0       0
   798 ;;      Totals:         0       0       0       0       0
   799 ;;Total ram usage:        0 bytes
   800 ;; Hardware stack levels used: 1
   801 ;; Hardware stack levels required when called: 3
   802 ;; This function calls:
   803 ;;		_PWM1_Duty
   804 ;;		_PWM1_Init
   805 ;;		_PWM1_Start
   806 ;;		_PWM2_Duty
   807 ;;		_PWM2_Init
   808 ;;		_PWM2_Start
   809 ;; This function is called by:
   810 ;;		_main
   811 ;; This function uses a non-reentrant model
   812 ;;
   813                           
   814     0F2F                     _PWM_ST:	
   815                           ;psect for function _PWM_ST
   816                           
   817     0F2F                     l1645:	
   818                           ;incstack = 0
   819                           ; Regs used in _PWM_ST: [wreg+status,2+status,0+btemp+1+pclath+cstack]
   820                           
   821                           
   822                           ;PWM.c: 101: PWM1_Init(4000);
   823     0F2F  3000               	movlw	0
   824     0F30  1283               	bcf	3,5	;RP0=0, select bank0
   825     0F31  1303               	bcf	3,6	;RP1=0, select bank0
   826     0F32  00A9               	movwf	PWM1_Init@freq+3
   827     0F33  3000               	movlw	0
   828     0F34  00A8               	movwf	PWM1_Init@freq+2
   829     0F35  300F               	movlw	15
   830     0F36  00A7               	movwf	PWM1_Init@freq+1
   831     0F37  30A0               	movlw	160
   832     0F38  00A6               	movwf	PWM1_Init@freq
   833     0F39  120A  158A  26F8  120A  158A  	fcall	_PWM1_Init
   834                           
   835                           ;PWM.c: 102: PWM2_Init(4000);
   836     0F3E  3000               	movlw	0
   837     0F3F  1283               	bcf	3,5	;RP0=0, select bank0
   838     0F40  1303               	bcf	3,6	;RP1=0, select bank0
   839     0F41  00A9               	movwf	PWM2_Init@freq+3
   840     0F42  3000               	movlw	0
   841     0F43  00A8               	movwf	PWM2_Init@freq+2
   842     0F44  300F               	movlw	15
   843     0F45  00A7               	movwf	PWM2_Init@freq+1
   844     0F46  30A0               	movlw	160
   845     0F47  00A6               	movwf	PWM2_Init@freq
   846     0F48  120A  118A  2008  120A  158A  	fcall	_PWM2_Init
   847     0F4D                     l1647:
   848                           
   849                           ;PWM.c: 103: PWM1_Duty(0);
   850     0F4D  3000               	movlw	0
   851     0F4E  1683               	bsf	3,5	;RP0=1, select bank1
   852     0F4F  1303               	bcf	3,6	;RP1=0, select bank1
   853     0F50  00AC               	movwf	PWM1_Duty@duty^(0+128)
   854     0F51  00AD               	movwf	(PWM1_Duty@duty+1)^(0+128)
   855     0F52  120A  118A  20DC  120A  158A  	fcall	_PWM1_Duty
   856     0F57                     l1649:
   857                           
   858                           ;PWM.c: 104: PWM2_Duty(0);
   859     0F57  3000               	movlw	0
   860     0F58  1683               	bsf	3,5	;RP0=1, select bank1
   861     0F59  1303               	bcf	3,6	;RP1=0, select bank1
   862     0F5A  00AC               	movwf	PWM2_Duty@duty^(0+128)
   863     0F5B  00AD               	movwf	(PWM2_Duty@duty+1)^(0+128)
   864     0F5C  120A  118A  217A  120A  158A  	fcall	_PWM2_Duty
   865     0F61                     l1651:
   866                           
   867                           ;PWM.c: 105: PWM1_Start();
   868     0F61  120A  158A  264E  120A  158A  	fcall	_PWM1_Start
   869     0F66                     l1653:
   870                           
   871                           ;PWM.c: 106: PWM2_Start();
   872     0F66  120A  158A  2657  120A  158A  	fcall	_PWM2_Start
   873     0F6B                     l113:
   874     0F6B  0008               	return
   875     0F6C                     __end_of_PWM_ST:
   876                           
   877                           	psect	text3
   878     0E57                     __ptext3:	
   879 ;; *************** function _PWM2_Start *****************
   880 ;; Defined at:
   881 ;;		line 78 in file "PWM.c"
   882 ;; Parameters:    Size  Location     Type
   883 ;;		None
   884 ;; Auto vars:     Size  Location     Type
   885 ;;		None
   886 ;; Return value:  Size  Location     Type
   887 ;;                  1    wreg      void 
   888 ;; Registers used:
   889 ;;		None
   890 ;; Tracked objects:
   891 ;;		On entry : 0/0
   892 ;;		On exit  : 0/0
   893 ;;		Unchanged: 0/0
   894 ;; Data sizes:     COMMON   BANK0   BANK1   BANK3   BANK2
   895 ;;      Params:         0       0       0       0       0
   896 ;;      Locals:         0       0       0       0       0
   897 ;;      Temps:          0       0       0       0       0
   898 ;;      Totals:         0       0       0       0       0
   899 ;;Total ram usage:        0 bytes
   900 ;; Hardware stack levels used: 1
   901 ;; This function calls:
   902 ;;		Nothing
   903 ;; This function is called by:
   904 ;;		_PWM_ST
   905 ;; This function uses a non-reentrant model
   906 ;;
   907                           
   908     0E57                     _PWM2_Start:	
   909                           ;psect for function _PWM2_Start
   910                           
   911     0E57                     l1151:	
   912                           ;incstack = 0
   913                           ; Regs used in _PWM2_Start: []
   914                           
   915                           
   916                           ;PWM.c: 79: CCP2M3 = 1;
   917     0E57  1283               	bcf	3,5	;RP0=0, select bank0
   918     0E58  1303               	bcf	3,6	;RP1=0, select bank0
   919     0E59  159D               	bsf	29,3	;volatile
   920                           
   921                           ;PWM.c: 80: CCP2M2 = 1;
   922     0E5A  151D               	bsf	29,2	;volatile
   923                           
   924                           ;PWM.c: 91: TMR2ON = 1;
   925     0E5B  1512               	bsf	18,2	;volatile
   926                           
   927                           ;PWM.c: 92: TRISC1 = 0;
   928     0E5C  1683               	bsf	3,5	;RP0=1, select bank1
   929     0E5D  1303               	bcf	3,6	;RP1=0, select bank1
   930     0E5E  1087               	bcf	7,1	;volatile
   931     0E5F                     l107:
   932     0E5F  0008               	return
   933     0E60                     __end_of_PWM2_Start:
   934                           
   935                           	psect	text4
   936     0008                     __ptext4:	
   937 ;; *************** function _PWM2_Init *****************
   938 ;; Defined at:
   939 ;;		line 31 in file "PWM.c"
   940 ;; Parameters:    Size  Location     Type
   941 ;;  freq            4    6[BANK0 ] long 
   942 ;; Auto vars:     Size  Location     Type
   943 ;;		None
   944 ;; Return value:  Size  Location     Type
   945 ;;                  2    6[BANK0 ] int 
   946 ;; Registers used:
   947 ;;		wreg, status,2, status,0, pclath, cstack
   948 ;; Tracked objects:
   949 ;;		On entry : 0/0
   950 ;;		On exit  : 0/0
   951 ;;		Unchanged: 0/0
   952 ;; Data sizes:     COMMON   BANK0   BANK1   BANK3   BANK2
   953 ;;      Params:         0       4       0       0       0
   954 ;;      Locals:         0       0       0       0       0
   955 ;;      Temps:          4       0       0       0       0
   956 ;;      Totals:         4       4       0       0       0
   957 ;;Total ram usage:        8 bytes
   958 ;; Hardware stack levels used: 1
   959 ;; Hardware stack levels required when called: 1
   960 ;; This function calls:
   961 ;;		___aldiv
   962 ;; This function is called by:
   963 ;;		_PWM_ST
   964 ;; This function uses a non-reentrant model
   965 ;;
   966                           
   967     0008                     _PWM2_Init:	
   968                           ;psect for function _PWM2_Init
   969                           
   970     0008                     l1633:	
   971                           ;incstack = 0
   972                           ; Regs used in _PWM2_Init: [wreg+status,2+status,0+pclath+cstack]
   973                           
   974     0008  1283               	bcf	3,5	;RP0=0, select bank0
   975     0009  1303               	bcf	3,6	;RP1=0, select bank0
   976     000A  0826               	movf	PWM2_Init@freq,w
   977     000B  00F9               	movwf	??_PWM2_Init
   978     000C  0827               	movf	PWM2_Init@freq+1,w
   979     000D  00FA               	movwf	??_PWM2_Init+1
   980     000E  0828               	movf	PWM2_Init@freq+2,w
   981     000F  00FB               	movwf	??_PWM2_Init+2
   982     0010  0829               	movf	PWM2_Init@freq+3,w
   983     0011  00FC               	movwf	??_PWM2_Init+3
   984     0012  3002               	movlw	2
   985     0013                     u2295:
   986     0013  1003               	clrc
   987     0014  0DF9               	rlf	??_PWM2_Init,f
   988     0015  0DFA               	rlf	??_PWM2_Init+1,f
   989     0016  0DFB               	rlf	??_PWM2_Init+2,f
   990     0017  0DFC               	rlf	??_PWM2_Init+3,f
   991     0018                     u2290:
   992     0018  3EFF               	addlw	-1
   993     0019  1D03               	skipz
   994     001A  2813               	goto	u2295
   995     001B  3002               	movlw	2
   996     001C                     u2305:
   997     001C  1003               	clrc
   998     001D  0DF9               	rlf	??_PWM2_Init,f
   999     001E  0DFA               	rlf	??_PWM2_Init+1,f
  1000     001F  0DFB               	rlf	??_PWM2_Init+2,f
  1001     0020  0DFC               	rlf	??_PWM2_Init+3,f
  1002     0021                     u2300:
  1003     0021  3EFF               	addlw	-1
  1004     0022  1D03               	skipz
  1005     0023  281C               	goto	u2305
  1006     0024  087C               	movf	??_PWM2_Init+3,w
  1007     0025  00F3               	movwf	___aldiv@divisor+3
  1008     0026  087B               	movf	??_PWM2_Init+2,w
  1009     0027  00F2               	movwf	___aldiv@divisor+2
  1010     0028  087A               	movf	??_PWM2_Init+1,w
  1011     0029  00F1               	movwf	___aldiv@divisor+1
  1012     002A  0879               	movf	??_PWM2_Init,w
  1013     002B  00F0               	movwf	___aldiv@divisor
  1014     002C  3000               	movlw	0
  1015     002D  00F7               	movwf	___aldiv@dividend+3
  1016     002E  303D               	movlw	61
  1017     002F  00F6               	movwf	___aldiv@dividend+2
  1018     0030  3009               	movlw	9
  1019     0031  00F5               	movwf	___aldiv@dividend+1
  1020     0032  3000               	movlw	0
  1021     0033  00F4               	movwf	___aldiv@dividend
  1022     0034  120A  118A  203F  120A  118A  	fcall	___aldiv
  1023     0039  0870               	movf	?___aldiv,w
  1024     003A  3EFF               	addlw	255
  1025     003B  1683               	bsf	3,5	;RP0=1, select bank1
  1026     003C  1303               	bcf	3,6	;RP1=0, select bank1
  1027     003D  0092               	movwf	18	;volatile
  1028     003E                     l90:
  1029     003E  0008               	return
  1030     003F                     __end_of_PWM2_Init:
  1031                           
  1032                           	psect	text5
  1033     017A                     __ptext5:	
  1034 ;; *************** function _PWM2_Duty *****************
  1035 ;; Defined at:
  1036 ;;		line 47 in file "PWM.c"
  1037 ;; Parameters:    Size  Location     Type
  1038 ;;  duty            2    4[BANK1 ] unsigned int 
  1039 ;; Auto vars:     Size  Location     Type
  1040 ;;		None
  1041 ;; Return value:  Size  Location     Type
  1042 ;;                  2    4[BANK1 ] int 
  1043 ;; Registers used:
  1044 ;;		wreg, status,2, status,0, btemp+1, pclath, cstack
  1045 ;; Tracked objects:
  1046 ;;		On entry : 0/0
  1047 ;;		On exit  : 0/0
  1048 ;;		Unchanged: 0/0
  1049 ;; Data sizes:     COMMON   BANK0   BANK1   BANK3   BANK2
  1050 ;;      Params:         0       0       2       0       0
  1051 ;;      Locals:         0       0       0       0       0
  1052 ;;      Temps:          0       0       2       0       0
  1053 ;;      Totals:         0       0       4       0       0
  1054 ;;Total ram usage:        4 bytes
  1055 ;; Hardware stack levels used: 1
  1056 ;; Hardware stack levels required when called: 2
  1057 ;; This function calls:
  1058 ;;		_PWM_Max_Duty
  1059 ;;		___fldiv
  1060 ;;		___flmul
  1061 ;;		___fltol
  1062 ;;		___xxtofl
  1063 ;; This function is called by:
  1064 ;;		_main
  1065 ;;		_PWM_ST
  1066 ;; This function uses a non-reentrant model
  1067 ;;
  1068                           
  1069     017A                     _PWM2_Duty:	
  1070                           ;psect for function _PWM2_Duty
  1071                           
  1072     017A                     l1621:	
  1073                           ;incstack = 0
  1074                           ; Regs used in _PWM2_Duty: [wreg+status,2+status,0+btemp+1+pclath+cstack]
  1075                           
  1076                           
  1077                           ;PWM.c: 48: if(duty<1024){
  1078     017A  3004               	movlw	4
  1079     017B  1683               	bsf	3,5	;RP0=1, select bank1
  1080     017C  1303               	bcf	3,6	;RP1=0, select bank1
  1081     017D  022D               	subwf	(PWM2_Duty@duty+1)^(0+128),w
  1082     017E  3000               	movlw	0
  1083     017F  1903               	skipnz
  1084     0180  022C               	subwf	PWM2_Duty@duty^(0+128),w
  1085     0181  1803               	skipnc
  1086     0182  2984               	goto	u2241
  1087     0183  2985               	goto	u2240
  1088     0184                     u2241:
  1089     0184  2A17               	goto	l98
  1090     0185                     u2240:
  1091     0185                     l1623:
  1092                           
  1093                           ;PWM.c: 49: duty = ((float)duty/1023)*PWM_Max_Duty();
  1094     0185  082C               	movf	PWM2_Duty@duty^(0+128),w
  1095     0186  1283               	bcf	3,5	;RP0=0, select bank0
  1096     0187  1303               	bcf	3,6	;RP1=0, select bank0
  1097     0188  00A8               	movwf	___xxtofl@val
  1098     0189  1683               	bsf	3,5	;RP0=1, select bank1
  1099     018A  1303               	bcf	3,6	;RP1=0, select bank1
  1100     018B  082D               	movf	(PWM2_Duty@duty+1)^(0+128),w
  1101     018C  1283               	bcf	3,5	;RP0=0, select bank0
  1102     018D  1303               	bcf	3,6	;RP1=0, select bank0
  1103     018E  00A9               	movwf	___xxtofl@val+1
  1104     018F  01AA               	clrf	___xxtofl@val+2
  1105     0190  01AB               	clrf	___xxtofl@val+3
  1106     0191  3000               	movlw	0
  1107     0192  120A  118A  2218  120A  118A  	fcall	___xxtofl
  1108     0197  1283               	bcf	3,5	;RP0=0, select bank0
  1109     0198  1303               	bcf	3,6	;RP1=0, select bank0
  1110     0199  082B               	movf	?___xxtofl+3,w
  1111     019A  00BD               	movwf	___fldiv@b+3
  1112     019B  082A               	movf	?___xxtofl+2,w
  1113     019C  00BC               	movwf	___fldiv@b+2
  1114     019D  0829               	movf	?___xxtofl+1,w
  1115     019E  00BB               	movwf	___fldiv@b+1
  1116     019F  0828               	movf	?___xxtofl,w
  1117     01A0  00BA               	movwf	___fldiv@b
  1118     01A1  3044               	movlw	68
  1119     01A2  00B9               	movwf	___fldiv@a+3
  1120     01A3  307F               	movlw	127
  1121     01A4  00B8               	movwf	___fldiv@a+2
  1122     01A5  30C0               	movlw	192
  1123     01A6  00B7               	movwf	___fldiv@a+1
  1124     01A7  3000               	movlw	0
  1125     01A8  00B6               	movwf	___fldiv@a
  1126     01A9  120A  118A  22D2  120A  118A  	fcall	___fldiv
  1127     01AE  1283               	bcf	3,5	;RP0=0, select bank0
  1128     01AF  1303               	bcf	3,6	;RP1=0, select bank0
  1129     01B0  0839               	movf	?___fldiv+3,w
  1130     01B1  00D7               	movwf	___flmul@a+3
  1131     01B2  0838               	movf	?___fldiv+2,w
  1132     01B3  00D6               	movwf	___flmul@a+2
  1133     01B4  0837               	movf	?___fldiv+1,w
  1134     01B5  00D5               	movwf	___flmul@a+1
  1135     01B6  0836               	movf	?___fldiv,w
  1136     01B7  00D4               	movwf	___flmul@a
  1137     01B8  120A  158A  26C9  120A  118A  	fcall	_PWM_Max_Duty
  1138     01BD  1283               	bcf	3,5	;RP0=0, select bank0
  1139     01BE  1303               	bcf	3,6	;RP1=0, select bank0
  1140     01BF  0826               	movf	?_PWM_Max_Duty,w
  1141     01C0  00A8               	movwf	___xxtofl@val
  1142     01C1  0827               	movf	?_PWM_Max_Duty+1,w
  1143     01C2  00A9               	movwf	___xxtofl@val+1
  1144     01C3  3000               	movlw	0
  1145     01C4  1BA9               	btfsc	___xxtofl@val+1,7
  1146     01C5  30FF               	movlw	255
  1147     01C6  00AA               	movwf	___xxtofl@val+2
  1148     01C7  00AB               	movwf	___xxtofl@val+3
  1149     01C8  3001               	movlw	1
  1150     01C9  120A  118A  2218  120A  118A  	fcall	___xxtofl
  1151     01CE  1283               	bcf	3,5	;RP0=0, select bank0
  1152     01CF  1303               	bcf	3,6	;RP1=0, select bank0
  1153     01D0  082B               	movf	?___xxtofl+3,w
  1154     01D1  00D3               	movwf	___flmul@b+3
  1155     01D2  082A               	movf	?___xxtofl+2,w
  1156     01D3  00D2               	movwf	___flmul@b+2
  1157     01D4  0829               	movf	?___xxtofl+1,w
  1158     01D5  00D1               	movwf	___flmul@b+1
  1159     01D6  0828               	movf	?___xxtofl,w
  1160     01D7  00D0               	movwf	___flmul@b
  1161     01D8  120A  118A  24A5  120A  118A  	fcall	___flmul
  1162     01DD  1283               	bcf	3,5	;RP0=0, select bank0
  1163     01DE  1303               	bcf	3,6	;RP1=0, select bank0
  1164     01DF  0853               	movf	?___flmul+3,w
  1165     01E0  00ED               	movwf	___fltol@f1+3
  1166     01E1  0852               	movf	?___flmul+2,w
  1167     01E2  00EC               	movwf	___fltol@f1+2
  1168     01E3  0851               	movf	?___flmul+1,w
  1169     01E4  00EB               	movwf	___fltol@f1+1
  1170     01E5  0850               	movf	?___flmul,w
  1171     01E6  00EA               	movwf	___fltol@f1
  1172     01E7  120A  158A  276C  120A  118A  	fcall	___fltol
  1173     01EC  1283               	bcf	3,5	;RP0=0, select bank0
  1174     01ED  1303               	bcf	3,6	;RP1=0, select bank0
  1175     01EE  086B               	movf	?___fltol+1,w
  1176     01EF  1683               	bsf	3,5	;RP0=1, select bank1
  1177     01F0  1303               	bcf	3,6	;RP1=0, select bank1
  1178     01F1  00AD               	movwf	(PWM2_Duty@duty+1)^(0+128)
  1179     01F2  1283               	bcf	3,5	;RP0=0, select bank0
  1180     01F3  1303               	bcf	3,6	;RP1=0, select bank0
  1181     01F4  086A               	movf	?___fltol,w
  1182     01F5  1683               	bsf	3,5	;RP0=1, select bank1
  1183     01F6  1303               	bcf	3,6	;RP1=0, select bank1
  1184     01F7  00AC               	movwf	PWM2_Duty@duty^(0+128)
  1185     01F8                     l1625:
  1186                           
  1187                           ;PWM.c: 50: CCP2X = duty & 2;
  1188     01F8  1283               	bcf	3,5	;RP0=0, select bank0
  1189     01F9  1303               	bcf	3,6	;RP1=0, select bank0
  1190     01FA  129D               	bcf	29,5	;volatile
  1191     01FB                     l1627:
  1192                           
  1193                           ;PWM.c: 51: CCP2Y = duty & 1;
  1194     01FB  1683               	bsf	3,5	;RP0=1, select bank1
  1195     01FC  1303               	bcf	3,6	;RP1=0, select bank1
  1196     01FD  182C               	btfsc	PWM2_Duty@duty^(0+128),0
  1197     01FE  2A00               	goto	u2251
  1198     01FF  2A04               	goto	u2250
  1199     0200                     u2251:
  1200     0200  1283               	bcf	3,5	;RP0=0, select bank0
  1201     0201  1303               	bcf	3,6	;RP1=0, select bank0
  1202     0202  161D               	bsf	29,4	;volatile
  1203     0203  2A07               	goto	u2264
  1204     0204                     u2250:
  1205     0204  1283               	bcf	3,5	;RP0=0, select bank0
  1206     0205  1303               	bcf	3,6	;RP1=0, select bank0
  1207     0206  121D               	bcf	29,4	;volatile
  1208     0207                     u2264:
  1209     0207                     l1629:
  1210                           
  1211                           ;PWM.c: 52: CCPR2L = duty>>2;
  1212     0207  1683               	bsf	3,5	;RP0=1, select bank1
  1213     0208  1303               	bcf	3,6	;RP1=0, select bank1
  1214     0209  082D               	movf	(PWM2_Duty@duty+1)^(0+128),w
  1215     020A  00AF               	movwf	(??_PWM2_Duty^(0+128)+1)
  1216     020B  082C               	movf	PWM2_Duty@duty^(0+128),w
  1217     020C  00AE               	movwf	??_PWM2_Duty^(0+128)
  1218     020D  1003               	clrc
  1219     020E  0CAF               	rrf	(??_PWM2_Duty^(0+128)+1),f
  1220     020F  0CAE               	rrf	??_PWM2_Duty^(0+128),f
  1221     0210  1003               	clrc
  1222     0211  0CAF               	rrf	(??_PWM2_Duty^(0+128)+1),f
  1223     0212  0CAE               	rrf	??_PWM2_Duty^(0+128),f
  1224     0213  082E               	movf	??_PWM2_Duty^(0+128),w
  1225     0214  1283               	bcf	3,5	;RP0=0, select bank0
  1226     0215  1303               	bcf	3,6	;RP1=0, select bank0
  1227     0216  009B               	movwf	27	;volatile
  1228     0217                     l98:
  1229     0217  0008               	return
  1230     0218                     __end_of_PWM2_Duty:
  1231                           
  1232                           	psect	text6
  1233     0E4E                     __ptext6:	
  1234 ;; *************** function _PWM1_Start *****************
  1235 ;; Defined at:
  1236 ;;		line 56 in file "PWM.c"
  1237 ;; Parameters:    Size  Location     Type
  1238 ;;		None
  1239 ;; Auto vars:     Size  Location     Type
  1240 ;;		None
  1241 ;; Return value:  Size  Location     Type
  1242 ;;                  1    wreg      void 
  1243 ;; Registers used:
  1244 ;;		None
  1245 ;; Tracked objects:
  1246 ;;		On entry : 0/0
  1247 ;;		On exit  : 0/0
  1248 ;;		Unchanged: 0/0
  1249 ;; Data sizes:     COMMON   BANK0   BANK1   BANK3   BANK2
  1250 ;;      Params:         0       0       0       0       0
  1251 ;;      Locals:         0       0       0       0       0
  1252 ;;      Temps:          0       0       0       0       0
  1253 ;;      Totals:         0       0       0       0       0
  1254 ;;Total ram usage:        0 bytes
  1255 ;; Hardware stack levels used: 1
  1256 ;; This function calls:
  1257 ;;		Nothing
  1258 ;; This function is called by:
  1259 ;;		_PWM_ST
  1260 ;; This function uses a non-reentrant model
  1261 ;;
  1262                           
  1263     0E4E                     _PWM1_Start:	
  1264                           ;psect for function _PWM1_Start
  1265                           
  1266     0E4E                     l1149:	
  1267                           ;incstack = 0
  1268                           ; Regs used in _PWM1_Start: []
  1269                           
  1270                           
  1271                           ;PWM.c: 57: CCP1M3 = 1;
  1272     0E4E  1283               	bcf	3,5	;RP0=0, select bank0
  1273     0E4F  1303               	bcf	3,6	;RP1=0, select bank0
  1274     0E50  1597               	bsf	23,3	;volatile
  1275                           
  1276                           ;PWM.c: 58: CCP1M2 = 1;
  1277     0E51  1517               	bsf	23,2	;volatile
  1278                           
  1279                           ;PWM.c: 69: TMR2ON = 1;
  1280     0E52  1512               	bsf	18,2	;volatile
  1281                           
  1282                           ;PWM.c: 70: TRISC2 = 0;
  1283     0E53  1683               	bsf	3,5	;RP0=1, select bank1
  1284     0E54  1303               	bcf	3,6	;RP1=0, select bank1
  1285     0E55  1107               	bcf	7,2	;volatile
  1286     0E56                     l101:
  1287     0E56  0008               	return
  1288     0E57                     __end_of_PWM1_Start:
  1289                           
  1290                           	psect	text7
  1291     0EF8                     __ptext7:	
  1292 ;; *************** function _PWM1_Init *****************
  1293 ;; Defined at:
  1294 ;;		line 26 in file "PWM.c"
  1295 ;; Parameters:    Size  Location     Type
  1296 ;;  freq            4    6[BANK0 ] long 
  1297 ;; Auto vars:     Size  Location     Type
  1298 ;;		None
  1299 ;; Return value:  Size  Location     Type
  1300 ;;                  2    6[BANK0 ] int 
  1301 ;; Registers used:
  1302 ;;		wreg, status,2, status,0, pclath, cstack
  1303 ;; Tracked objects:
  1304 ;;		On entry : 0/0
  1305 ;;		On exit  : 0/0
  1306 ;;		Unchanged: 0/0
  1307 ;; Data sizes:     COMMON   BANK0   BANK1   BANK3   BANK2
  1308 ;;      Params:         0       4       0       0       0
  1309 ;;      Locals:         0       0       0       0       0
  1310 ;;      Temps:          4       0       0       0       0
  1311 ;;      Totals:         4       4       0       0       0
  1312 ;;Total ram usage:        8 bytes
  1313 ;; Hardware stack levels used: 1
  1314 ;; Hardware stack levels required when called: 1
  1315 ;; This function calls:
  1316 ;;		___aldiv
  1317 ;; This function is called by:
  1318 ;;		_PWM_ST
  1319 ;; This function uses a non-reentrant model
  1320 ;;
  1321                           
  1322     0EF8                     _PWM1_Init:	
  1323                           ;psect for function _PWM1_Init
  1324                           
  1325     0EF8                     l1631:	
  1326                           ;incstack = 0
  1327                           ; Regs used in _PWM1_Init: [wreg+status,2+status,0+pclath+cstack]
  1328                           
  1329     0EF8  1283               	bcf	3,5	;RP0=0, select bank0
  1330     0EF9  1303               	bcf	3,6	;RP1=0, select bank0
  1331     0EFA  0826               	movf	PWM1_Init@freq,w
  1332     0EFB  00F9               	movwf	??_PWM1_Init
  1333     0EFC  0827               	movf	PWM1_Init@freq+1,w
  1334     0EFD  00FA               	movwf	??_PWM1_Init+1
  1335     0EFE  0828               	movf	PWM1_Init@freq+2,w
  1336     0EFF  00FB               	movwf	??_PWM1_Init+2
  1337     0F00  0829               	movf	PWM1_Init@freq+3,w
  1338     0F01  00FC               	movwf	??_PWM1_Init+3
  1339     0F02  3002               	movlw	2
  1340     0F03                     u2275:
  1341     0F03  1003               	clrc
  1342     0F04  0DF9               	rlf	??_PWM1_Init,f
  1343     0F05  0DFA               	rlf	??_PWM1_Init+1,f
  1344     0F06  0DFB               	rlf	??_PWM1_Init+2,f
  1345     0F07  0DFC               	rlf	??_PWM1_Init+3,f
  1346     0F08                     u2270:
  1347     0F08  3EFF               	addlw	-1
  1348     0F09  1D03               	skipz
  1349     0F0A  2F03               	goto	u2275
  1350     0F0B  3002               	movlw	2
  1351     0F0C                     u2285:
  1352     0F0C  1003               	clrc
  1353     0F0D  0DF9               	rlf	??_PWM1_Init,f
  1354     0F0E  0DFA               	rlf	??_PWM1_Init+1,f
  1355     0F0F  0DFB               	rlf	??_PWM1_Init+2,f
  1356     0F10  0DFC               	rlf	??_PWM1_Init+3,f
  1357     0F11                     u2280:
  1358     0F11  3EFF               	addlw	-1
  1359     0F12  1D03               	skipz
  1360     0F13  2F0C               	goto	u2285
  1361     0F14  087C               	movf	??_PWM1_Init+3,w
  1362     0F15  00F3               	movwf	___aldiv@divisor+3
  1363     0F16  087B               	movf	??_PWM1_Init+2,w
  1364     0F17  00F2               	movwf	___aldiv@divisor+2
  1365     0F18  087A               	movf	??_PWM1_Init+1,w
  1366     0F19  00F1               	movwf	___aldiv@divisor+1
  1367     0F1A  0879               	movf	??_PWM1_Init,w
  1368     0F1B  00F0               	movwf	___aldiv@divisor
  1369     0F1C  3000               	movlw	0
  1370     0F1D  00F7               	movwf	___aldiv@dividend+3
  1371     0F1E  303D               	movlw	61
  1372     0F1F  00F6               	movwf	___aldiv@dividend+2
  1373     0F20  3009               	movlw	9
  1374     0F21  00F5               	movwf	___aldiv@dividend+1
  1375     0F22  3000               	movlw	0
  1376     0F23  00F4               	movwf	___aldiv@dividend
  1377     0F24  120A  118A  203F  120A  158A  	fcall	___aldiv
  1378     0F29  0870               	movf	?___aldiv,w
  1379     0F2A  3EFF               	addlw	255
  1380     0F2B  1683               	bsf	3,5	;RP0=1, select bank1
  1381     0F2C  1303               	bcf	3,6	;RP1=0, select bank1
  1382     0F2D  0092               	movwf	18	;volatile
  1383     0F2E                     l87:
  1384     0F2E  0008               	return
  1385     0F2F                     __end_of_PWM1_Init:
  1386                           
  1387                           	psect	text8
  1388     00DC                     __ptext8:	
  1389 ;; *************** function _PWM1_Duty *****************
  1390 ;; Defined at:
  1391 ;;		line 37 in file "PWM.c"
  1392 ;; Parameters:    Size  Location     Type
  1393 ;;  duty            2    4[BANK1 ] unsigned int 
  1394 ;; Auto vars:     Size  Location     Type
  1395 ;;		None
  1396 ;; Return value:  Size  Location     Type
  1397 ;;                  2    4[BANK1 ] int 
  1398 ;; Registers used:
  1399 ;;		wreg, status,2, status,0, btemp+1, pclath, cstack
  1400 ;; Tracked objects:
  1401 ;;		On entry : 0/0
  1402 ;;		On exit  : 0/0
  1403 ;;		Unchanged: 0/0
  1404 ;; Data sizes:     COMMON   BANK0   BANK1   BANK3   BANK2
  1405 ;;      Params:         0       0       2       0       0
  1406 ;;      Locals:         0       0       0       0       0
  1407 ;;      Temps:          0       0       2       0       0
  1408 ;;      Totals:         0       0       4       0       0
  1409 ;;Total ram usage:        4 bytes
  1410 ;; Hardware stack levels used: 1
  1411 ;; Hardware stack levels required when called: 2
  1412 ;; This function calls:
  1413 ;;		_PWM_Max_Duty
  1414 ;;		___fldiv
  1415 ;;		___flmul
  1416 ;;		___fltol
  1417 ;;		___xxtofl
  1418 ;; This function is called by:
  1419 ;;		_PWM_ST
  1420 ;; This function uses a non-reentrant model
  1421 ;;
  1422                           
  1423     00DC                     _PWM1_Duty:	
  1424                           ;psect for function _PWM1_Duty
  1425                           
  1426     00DC                     l1635:	
  1427                           ;incstack = 0
  1428                           ; Regs used in _PWM1_Duty: [wreg+status,2+status,0+btemp+1+pclath+cstack]
  1429                           
  1430                           
  1431                           ;PWM.c: 39: if(duty<1024) {
  1432     00DC  3004               	movlw	4
  1433     00DD  1683               	bsf	3,5	;RP0=1, select bank1
  1434     00DE  1303               	bcf	3,6	;RP1=0, select bank1
  1435     00DF  022D               	subwf	(PWM1_Duty@duty+1)^(0+128),w
  1436     00E0  3000               	movlw	0
  1437     00E1  1903               	skipnz
  1438     00E2  022C               	subwf	PWM1_Duty@duty^(0+128),w
  1439     00E3  1803               	skipnc
  1440     00E4  28E6               	goto	u2311
  1441     00E5  28E7               	goto	u2310
  1442     00E6                     u2311:
  1443     00E6  2979               	goto	l94
  1444     00E7                     u2310:
  1445     00E7                     l1637:
  1446                           
  1447                           ;PWM.c: 40: duty = ((float)duty/1023)*PWM_Max_Duty();
  1448     00E7  082C               	movf	PWM1_Duty@duty^(0+128),w
  1449     00E8  1283               	bcf	3,5	;RP0=0, select bank0
  1450     00E9  1303               	bcf	3,6	;RP1=0, select bank0
  1451     00EA  00A8               	movwf	___xxtofl@val
  1452     00EB  1683               	bsf	3,5	;RP0=1, select bank1
  1453     00EC  1303               	bcf	3,6	;RP1=0, select bank1
  1454     00ED  082D               	movf	(PWM1_Duty@duty+1)^(0+128),w
  1455     00EE  1283               	bcf	3,5	;RP0=0, select bank0
  1456     00EF  1303               	bcf	3,6	;RP1=0, select bank0
  1457     00F0  00A9               	movwf	___xxtofl@val+1
  1458     00F1  01AA               	clrf	___xxtofl@val+2
  1459     00F2  01AB               	clrf	___xxtofl@val+3
  1460     00F3  3000               	movlw	0
  1461     00F4  120A  118A  2218  120A  118A  	fcall	___xxtofl
  1462     00F9  1283               	bcf	3,5	;RP0=0, select bank0
  1463     00FA  1303               	bcf	3,6	;RP1=0, select bank0
  1464     00FB  082B               	movf	?___xxtofl+3,w
  1465     00FC  00BD               	movwf	___fldiv@b+3
  1466     00FD  082A               	movf	?___xxtofl+2,w
  1467     00FE  00BC               	movwf	___fldiv@b+2
  1468     00FF  0829               	movf	?___xxtofl+1,w
  1469     0100  00BB               	movwf	___fldiv@b+1
  1470     0101  0828               	movf	?___xxtofl,w
  1471     0102  00BA               	movwf	___fldiv@b
  1472     0103  3044               	movlw	68
  1473     0104  00B9               	movwf	___fldiv@a+3
  1474     0105  307F               	movlw	127
  1475     0106  00B8               	movwf	___fldiv@a+2
  1476     0107  30C0               	movlw	192
  1477     0108  00B7               	movwf	___fldiv@a+1
  1478     0109  3000               	movlw	0
  1479     010A  00B6               	movwf	___fldiv@a
  1480     010B  120A  118A  22D2  120A  118A  	fcall	___fldiv
  1481     0110  1283               	bcf	3,5	;RP0=0, select bank0
  1482     0111  1303               	bcf	3,6	;RP1=0, select bank0
  1483     0112  0839               	movf	?___fldiv+3,w
  1484     0113  00D7               	movwf	___flmul@a+3
  1485     0114  0838               	movf	?___fldiv+2,w
  1486     0115  00D6               	movwf	___flmul@a+2
  1487     0116  0837               	movf	?___fldiv+1,w
  1488     0117  00D5               	movwf	___flmul@a+1
  1489     0118  0836               	movf	?___fldiv,w
  1490     0119  00D4               	movwf	___flmul@a
  1491     011A  120A  158A  26C9  120A  118A  	fcall	_PWM_Max_Duty
  1492     011F  1283               	bcf	3,5	;RP0=0, select bank0
  1493     0120  1303               	bcf	3,6	;RP1=0, select bank0
  1494     0121  0826               	movf	?_PWM_Max_Duty,w
  1495     0122  00A8               	movwf	___xxtofl@val
  1496     0123  0827               	movf	?_PWM_Max_Duty+1,w
  1497     0124  00A9               	movwf	___xxtofl@val+1
  1498     0125  3000               	movlw	0
  1499     0126  1BA9               	btfsc	___xxtofl@val+1,7
  1500     0127  30FF               	movlw	255
  1501     0128  00AA               	movwf	___xxtofl@val+2
  1502     0129  00AB               	movwf	___xxtofl@val+3
  1503     012A  3001               	movlw	1
  1504     012B  120A  118A  2218  120A  118A  	fcall	___xxtofl
  1505     0130  1283               	bcf	3,5	;RP0=0, select bank0
  1506     0131  1303               	bcf	3,6	;RP1=0, select bank0
  1507     0132  082B               	movf	?___xxtofl+3,w
  1508     0133  00D3               	movwf	___flmul@b+3
  1509     0134  082A               	movf	?___xxtofl+2,w
  1510     0135  00D2               	movwf	___flmul@b+2
  1511     0136  0829               	movf	?___xxtofl+1,w
  1512     0137  00D1               	movwf	___flmul@b+1
  1513     0138  0828               	movf	?___xxtofl,w
  1514     0139  00D0               	movwf	___flmul@b
  1515     013A  120A  118A  24A5  120A  118A  	fcall	___flmul
  1516     013F  1283               	bcf	3,5	;RP0=0, select bank0
  1517     0140  1303               	bcf	3,6	;RP1=0, select bank0
  1518     0141  0853               	movf	?___flmul+3,w
  1519     0142  00ED               	movwf	___fltol@f1+3
  1520     0143  0852               	movf	?___flmul+2,w
  1521     0144  00EC               	movwf	___fltol@f1+2
  1522     0145  0851               	movf	?___flmul+1,w
  1523     0146  00EB               	movwf	___fltol@f1+1
  1524     0147  0850               	movf	?___flmul,w
  1525     0148  00EA               	movwf	___fltol@f1
  1526     0149  120A  158A  276C  120A  118A  	fcall	___fltol
  1527     014E  1283               	bcf	3,5	;RP0=0, select bank0
  1528     014F  1303               	bcf	3,6	;RP1=0, select bank0
  1529     0150  086B               	movf	?___fltol+1,w
  1530     0151  1683               	bsf	3,5	;RP0=1, select bank1
  1531     0152  1303               	bcf	3,6	;RP1=0, select bank1
  1532     0153  00AD               	movwf	(PWM1_Duty@duty+1)^(0+128)
  1533     0154  1283               	bcf	3,5	;RP0=0, select bank0
  1534     0155  1303               	bcf	3,6	;RP1=0, select bank0
  1535     0156  086A               	movf	?___fltol,w
  1536     0157  1683               	bsf	3,5	;RP0=1, select bank1
  1537     0158  1303               	bcf	3,6	;RP1=0, select bank1
  1538     0159  00AC               	movwf	PWM1_Duty@duty^(0+128)
  1539     015A                     l1639:
  1540                           
  1541                           ;PWM.c: 41: CCP1X = duty & 2;
  1542     015A  1283               	bcf	3,5	;RP0=0, select bank0
  1543     015B  1303               	bcf	3,6	;RP1=0, select bank0
  1544     015C  1297               	bcf	23,5	;volatile
  1545     015D                     l1641:
  1546                           
  1547                           ;PWM.c: 42: CCP1Y = duty & 1;
  1548     015D  1683               	bsf	3,5	;RP0=1, select bank1
  1549     015E  1303               	bcf	3,6	;RP1=0, select bank1
  1550     015F  182C               	btfsc	PWM1_Duty@duty^(0+128),0
  1551     0160  2962               	goto	u2321
  1552     0161  2966               	goto	u2320
  1553     0162                     u2321:
  1554     0162  1283               	bcf	3,5	;RP0=0, select bank0
  1555     0163  1303               	bcf	3,6	;RP1=0, select bank0
  1556     0164  1617               	bsf	23,4	;volatile
  1557     0165  2969               	goto	u2334
  1558     0166                     u2320:
  1559     0166  1283               	bcf	3,5	;RP0=0, select bank0
  1560     0167  1303               	bcf	3,6	;RP1=0, select bank0
  1561     0168  1217               	bcf	23,4	;volatile
  1562     0169                     u2334:
  1563     0169                     l1643:
  1564                           
  1565                           ;PWM.c: 43: CCPR1L = duty>>2;
  1566     0169  1683               	bsf	3,5	;RP0=1, select bank1
  1567     016A  1303               	bcf	3,6	;RP1=0, select bank1
  1568     016B  082D               	movf	(PWM1_Duty@duty+1)^(0+128),w
  1569     016C  00AF               	movwf	(??_PWM1_Duty^(0+128)+1)
  1570     016D  082C               	movf	PWM1_Duty@duty^(0+128),w
  1571     016E  00AE               	movwf	??_PWM1_Duty^(0+128)
  1572     016F  1003               	clrc
  1573     0170  0CAF               	rrf	(??_PWM1_Duty^(0+128)+1),f
  1574     0171  0CAE               	rrf	??_PWM1_Duty^(0+128),f
  1575     0172  1003               	clrc
  1576     0173  0CAF               	rrf	(??_PWM1_Duty^(0+128)+1),f
  1577     0174  0CAE               	rrf	??_PWM1_Duty^(0+128),f
  1578     0175  082E               	movf	??_PWM1_Duty^(0+128),w
  1579     0176  1283               	bcf	3,5	;RP0=0, select bank0
  1580     0177  1303               	bcf	3,6	;RP1=0, select bank0
  1581     0178  0095               	movwf	21	;volatile
  1582     0179                     l94:
  1583     0179  0008               	return
  1584     017A                     __end_of_PWM1_Duty:
  1585                           
  1586                           	psect	text9
  1587     0218                     __ptext9:	
  1588 ;; *************** function ___xxtofl *****************
  1589 ;; Defined at:
  1590 ;;		line 10 in file "C:\Program Files\Microchip\xc8\v2.40\pic\sources\c90\common\xxtofl.c"
  1591 ;; Parameters:    Size  Location     Type
  1592 ;;  sign            1    wreg     unsigned char 
  1593 ;;  val             4    8[BANK0 ] long 
  1594 ;; Auto vars:     Size  Location     Type
  1595 ;;  sign            1   16[BANK0 ] unsigned char 
  1596 ;;  arg             4   18[BANK0 ] unsigned long 
  1597 ;;  exp             1   17[BANK0 ] unsigned char 
  1598 ;; Return value:  Size  Location     Type
  1599 ;;                  4    8[BANK0 ] unsigned char 
  1600 ;; Registers used:
  1601 ;;		wreg, status,2, status,0
  1602 ;; Tracked objects:
  1603 ;;		On entry : 0/0
  1604 ;;		On exit  : 0/0
  1605 ;;		Unchanged: 0/0
  1606 ;; Data sizes:     COMMON   BANK0   BANK1   BANK3   BANK2
  1607 ;;      Params:         0       4       0       0       0
  1608 ;;      Locals:         0       6       0       0       0
  1609 ;;      Temps:          0       4       0       0       0
  1610 ;;      Totals:         0      14       0       0       0
  1611 ;;Total ram usage:       14 bytes
  1612 ;; Hardware stack levels used: 1
  1613 ;; This function calls:
  1614 ;;		Nothing
  1615 ;; This function is called by:
  1616 ;;		_PWM1_Duty
  1617 ;;		_PWM2_Duty
  1618 ;; This function uses a non-reentrant model
  1619 ;;
  1620                           
  1621     0218                     ___xxtofl:	
  1622                           ;psect for function ___xxtofl
  1623                           
  1624                           
  1625                           ;incstack = 0
  1626                           ; Regs used in ___xxtofl: [wreg+status,2+status,0]
  1627                           ;___xxtofl@sign stored from wreg
  1628     0218  1283               	bcf	3,5	;RP0=0, select bank0
  1629     0219  1303               	bcf	3,6	;RP1=0, select bank0
  1630     021A  00B0               	movwf	___xxtofl@sign
  1631     021B                     l1577:
  1632     021B  0830               	movf	___xxtofl@sign,w
  1633     021C  1903               	btfsc	3,2
  1634     021D  2A1F               	goto	u2101
  1635     021E  2A20               	goto	u2100
  1636     021F                     u2101:
  1637     021F  2A34               	goto	l1583
  1638     0220                     u2100:
  1639     0220                     l1579:
  1640     0220  1FAB               	btfss	___xxtofl@val+3,7
  1641     0221  2A23               	goto	u2111
  1642     0222  2A24               	goto	u2110
  1643     0223                     u2111:
  1644     0223  2A34               	goto	l1583
  1645     0224                     u2110:
  1646     0224                     l1581:
  1647     0224  0928               	comf	___xxtofl@val,w
  1648     0225  00B2               	movwf	___xxtofl@arg
  1649     0226  0929               	comf	___xxtofl@val+1,w
  1650     0227  00B3               	movwf	___xxtofl@arg+1
  1651     0228  092A               	comf	___xxtofl@val+2,w
  1652     0229  00B4               	movwf	___xxtofl@arg+2
  1653     022A  092B               	comf	___xxtofl@val+3,w
  1654     022B  00B5               	movwf	___xxtofl@arg+3
  1655     022C  0AB2               	incf	___xxtofl@arg,f
  1656     022D  1903               	skipnz
  1657     022E  0AB3               	incf	___xxtofl@arg+1,f
  1658     022F  1903               	skipnz
  1659     0230  0AB4               	incf	___xxtofl@arg+2,f
  1660     0231  1903               	skipnz
  1661     0232  0AB5               	incf	___xxtofl@arg+3,f
  1662     0233  2A3C               	goto	l632
  1663     0234                     l1583:
  1664     0234  082B               	movf	___xxtofl@val+3,w
  1665     0235  00B5               	movwf	___xxtofl@arg+3
  1666     0236  082A               	movf	___xxtofl@val+2,w
  1667     0237  00B4               	movwf	___xxtofl@arg+2
  1668     0238  0829               	movf	___xxtofl@val+1,w
  1669     0239  00B3               	movwf	___xxtofl@arg+1
  1670     023A  0828               	movf	___xxtofl@val,w
  1671     023B  00B2               	movwf	___xxtofl@arg
  1672     023C                     l632:
  1673     023C  082B               	movf	___xxtofl@val+3,w
  1674     023D  042A               	iorwf	___xxtofl@val+2,w
  1675     023E  0429               	iorwf	___xxtofl@val+1,w
  1676     023F  0428               	iorwf	___xxtofl@val,w
  1677     0240  1D03               	skipz
  1678     0241  2A43               	goto	u2121
  1679     0242  2A44               	goto	u2120
  1680     0243                     u2121:
  1681     0243  2A4D               	goto	l1589
  1682     0244                     u2120:
  1683     0244                     l1585:
  1684     0244  3000               	movlw	0
  1685     0245  00AB               	movwf	?___xxtofl+3
  1686     0246  3000               	movlw	0
  1687     0247  00AA               	movwf	?___xxtofl+2
  1688     0248  3000               	movlw	0
  1689     0249  00A9               	movwf	?___xxtofl+1
  1690     024A  3000               	movlw	0
  1691     024B  00A8               	movwf	?___xxtofl
  1692     024C  2AD1               	goto	l634
  1693     024D                     l1589:
  1694     024D  3096               	movlw	150
  1695     024E  00B1               	movwf	___xxtofl@exp
  1696     024F  2A5D               	goto	l1593
  1697     0250                     l1591:
  1698     0250  3001               	movlw	1
  1699     0251  00AC               	movwf	??___xxtofl
  1700     0252  082C               	movf	??___xxtofl,w
  1701     0253  07B1               	addwf	___xxtofl@exp,f
  1702     0254  3001               	movlw	1
  1703     0255                     u2135:
  1704     0255  1003               	clrc
  1705     0256  0CB5               	rrf	___xxtofl@arg+3,f
  1706     0257  0CB4               	rrf	___xxtofl@arg+2,f
  1707     0258  0CB3               	rrf	___xxtofl@arg+1,f
  1708     0259  0CB2               	rrf	___xxtofl@arg,f
  1709     025A  3EFF               	addlw	-1
  1710     025B  1D03               	skipz
  1711     025C  2A55               	goto	u2135
  1712     025D                     l1593:
  1713     025D  30FE               	movlw	254
  1714     025E  0535               	andwf	___xxtofl@arg+3,w
  1715     025F  1D03               	btfss	3,2
  1716     0260  2A62               	goto	u2141
  1717     0261  2A63               	goto	u2140
  1718     0262                     u2141:
  1719     0262  2A50               	goto	l1591
  1720     0263                     u2140:
  1721     0263  2A7F               	goto	l638
  1722     0264                     l1595:
  1723     0264  3001               	movlw	1
  1724     0265  00AC               	movwf	??___xxtofl
  1725     0266  082C               	movf	??___xxtofl,w
  1726     0267  07B1               	addwf	___xxtofl@exp,f
  1727     0268                     l1597:
  1728     0268  3001               	movlw	1
  1729     0269  07B2               	addwf	___xxtofl@arg,f
  1730     026A  3000               	movlw	0
  1731     026B  1803               	skipnc
  1732     026C  3001               	movlw	1
  1733     026D  07B3               	addwf	___xxtofl@arg+1,f
  1734     026E  3000               	movlw	0
  1735     026F  1803               	skipnc
  1736     0270  3001               	movlw	1
  1737     0271  07B4               	addwf	___xxtofl@arg+2,f
  1738     0272  3000               	movlw	0
  1739     0273  1803               	skipnc
  1740     0274  3001               	movlw	1
  1741     0275  07B5               	addwf	___xxtofl@arg+3,f
  1742     0276                     l1599:
  1743     0276  3001               	movlw	1
  1744     0277                     u2155:
  1745     0277  1003               	clrc
  1746     0278  0CB5               	rrf	___xxtofl@arg+3,f
  1747     0279  0CB4               	rrf	___xxtofl@arg+2,f
  1748     027A  0CB3               	rrf	___xxtofl@arg+1,f
  1749     027B  0CB2               	rrf	___xxtofl@arg,f
  1750     027C  3EFF               	addlw	-1
  1751     027D  1D03               	skipz
  1752     027E  2A77               	goto	u2155
  1753     027F                     l638:
  1754     027F  30FF               	movlw	255
  1755     0280  0535               	andwf	___xxtofl@arg+3,w
  1756     0281  1D03               	btfss	3,2
  1757     0282  2A84               	goto	u2161
  1758     0283  2A85               	goto	u2160
  1759     0284                     u2161:
  1760     0284  2A64               	goto	l1595
  1761     0285                     u2160:
  1762     0285  2A91               	goto	l1603
  1763     0286                     l1601:
  1764     0286  3001               	movlw	1
  1765     0287  02B1               	subwf	___xxtofl@exp,f
  1766     0288  3001               	movlw	1
  1767     0289  00AC               	movwf	??___xxtofl
  1768     028A                     u2175:
  1769     028A  1003               	clrc
  1770     028B  0DB2               	rlf	___xxtofl@arg,f
  1771     028C  0DB3               	rlf	___xxtofl@arg+1,f
  1772     028D  0DB4               	rlf	___xxtofl@arg+2,f
  1773     028E  0DB5               	rlf	___xxtofl@arg+3,f
  1774     028F  0BAC               	decfsz	??___xxtofl,f
  1775     0290  2A8A               	goto	u2175
  1776     0291                     l1603:
  1777     0291  1BB4               	btfsc	___xxtofl@arg+2,7
  1778     0292  2A94               	goto	u2181
  1779     0293  2A95               	goto	u2180
  1780     0294                     u2181:
  1781     0294  2A9B               	goto	l645
  1782     0295                     u2180:
  1783     0295                     l1605:
  1784     0295  3002               	movlw	2
  1785     0296  0231               	subwf	___xxtofl@exp,w
  1786     0297  1803               	skipnc
  1787     0298  2A9A               	goto	u2191
  1788     0299  2A9B               	goto	u2190
  1789     029A                     u2191:
  1790     029A  2A86               	goto	l1601
  1791     029B                     u2190:
  1792     029B                     l645:
  1793     029B  1831               	btfsc	___xxtofl@exp,0
  1794     029C  2A9E               	goto	u2201
  1795     029D  2A9F               	goto	u2200
  1796     029E                     u2201:
  1797     029E  2AA7               	goto	l646
  1798     029F                     u2200:
  1799     029F                     l1607:
  1800     029F  30FF               	movlw	255
  1801     02A0  05B2               	andwf	___xxtofl@arg,f
  1802     02A1  30FF               	movlw	255
  1803     02A2  05B3               	andwf	___xxtofl@arg+1,f
  1804     02A3  307F               	movlw	127
  1805     02A4  05B4               	andwf	___xxtofl@arg+2,f
  1806     02A5  30FF               	movlw	255
  1807     02A6  05B5               	andwf	___xxtofl@arg+3,f
  1808     02A7                     l646:
  1809     02A7  1003               	clrc
  1810     02A8  0CB1               	rrf	___xxtofl@exp,f
  1811     02A9                     l1609:
  1812     02A9  0831               	movf	___xxtofl@exp,w
  1813     02AA  00AC               	movwf	??___xxtofl
  1814     02AB  01AD               	clrf	??___xxtofl+1
  1815     02AC  01AE               	clrf	??___xxtofl+2
  1816     02AD  01AF               	clrf	??___xxtofl+3
  1817     02AE  3018               	movlw	24
  1818     02AF                     u2215:
  1819     02AF  1003               	clrc
  1820     02B0  0DAC               	rlf	??___xxtofl,f
  1821     02B1  0DAD               	rlf	??___xxtofl+1,f
  1822     02B2  0DAE               	rlf	??___xxtofl+2,f
  1823     02B3  0DAF               	rlf	??___xxtofl+3,f
  1824     02B4                     u2210:
  1825     02B4  3EFF               	addlw	-1
  1826     02B5  1D03               	skipz
  1827     02B6  2AAF               	goto	u2215
  1828     02B7  082C               	movf	??___xxtofl,w
  1829     02B8  04B2               	iorwf	___xxtofl@arg,f
  1830     02B9  082D               	movf	??___xxtofl+1,w
  1831     02BA  04B3               	iorwf	___xxtofl@arg+1,f
  1832     02BB  082E               	movf	??___xxtofl+2,w
  1833     02BC  04B4               	iorwf	___xxtofl@arg+2,f
  1834     02BD  082F               	movf	??___xxtofl+3,w
  1835     02BE  04B5               	iorwf	___xxtofl@arg+3,f
  1836     02BF                     l1611:
  1837     02BF  0830               	movf	___xxtofl@sign,w
  1838     02C0  1903               	btfsc	3,2
  1839     02C1  2AC3               	goto	u2221
  1840     02C2  2AC4               	goto	u2220
  1841     02C3                     u2221:
  1842     02C3  2AC9               	goto	l1617
  1843     02C4                     u2220:
  1844     02C4                     l1613:
  1845     02C4  1FAB               	btfss	___xxtofl@val+3,7
  1846     02C5  2AC7               	goto	u2231
  1847     02C6  2AC8               	goto	u2230
  1848     02C7                     u2231:
  1849     02C7  2AC9               	goto	l1617
  1850     02C8                     u2230:
  1851     02C8                     l1615:
  1852     02C8  17B5               	bsf	___xxtofl@arg+3,7
  1853     02C9                     l1617:
  1854     02C9  0835               	movf	___xxtofl@arg+3,w
  1855     02CA  00AB               	movwf	?___xxtofl+3
  1856     02CB  0834               	movf	___xxtofl@arg+2,w
  1857     02CC  00AA               	movwf	?___xxtofl+2
  1858     02CD  0833               	movf	___xxtofl@arg+1,w
  1859     02CE  00A9               	movwf	?___xxtofl+1
  1860     02CF  0832               	movf	___xxtofl@arg,w
  1861     02D0  00A8               	movwf	?___xxtofl
  1862     02D1                     l634:
  1863     02D1  0008               	return
  1864     02D2                     __end_of___xxtofl:
  1865                           
  1866                           	psect	text10
  1867     0F6C                     __ptext10:	
  1868 ;; *************** function ___fltol *****************
  1869 ;; Defined at:
  1870 ;;		line 43 in file "C:\Program Files\Microchip\xc8\v2.40\pic\sources\c90\common\fltol.c"
  1871 ;; Parameters:    Size  Location     Type
  1872 ;;  f1              4   74[BANK0 ] unsigned char 
  1873 ;; Auto vars:     Size  Location     Type
  1874 ;;  exp1            1   79[BANK0 ] unsigned char 
  1875 ;;  sign1           1   78[BANK0 ] unsigned char 
  1876 ;; Return value:  Size  Location     Type
  1877 ;;                  4   74[BANK0 ] long 
  1878 ;; Registers used:
  1879 ;;		wreg, status,2, status,0
  1880 ;; Tracked objects:
  1881 ;;		On entry : 0/0
  1882 ;;		On exit  : 0/0
  1883 ;;		Unchanged: 0/0
  1884 ;; Data sizes:     COMMON   BANK0   BANK1   BANK3   BANK2
  1885 ;;      Params:         0       4       0       0       0
  1886 ;;      Locals:         0       2       0       0       0
  1887 ;;      Temps:          0       0       4       0       0
  1888 ;;      Totals:         0       6       4       0       0
  1889 ;;Total ram usage:       10 bytes
  1890 ;; Hardware stack levels used: 1
  1891 ;; This function calls:
  1892 ;;		Nothing
  1893 ;; This function is called by:
  1894 ;;		_PWM1_Duty
  1895 ;;		_PWM2_Duty
  1896 ;; This function uses a non-reentrant model
  1897 ;;
  1898                           
  1899     0F6C                     ___fltol:	
  1900                           ;psect for function ___fltol
  1901                           
  1902     0F6C                     l1259:	
  1903                           ;incstack = 0
  1904                           ; Regs used in ___fltol: [wreg+status,2+status,0]
  1905                           
  1906     0F6C  1003               	clrc
  1907     0F6D  1283               	bcf	3,5	;RP0=0, select bank0
  1908     0F6E  1303               	bcf	3,6	;RP1=0, select bank0
  1909     0F6F  0D6C               	rlf	___fltol@f1+2,w
  1910     0F70  0D6D               	rlf	___fltol@f1+3,w
  1911     0F71  00EF               	movwf	___fltol@exp1
  1912     0F72  086F               	movf	___fltol@exp1,w
  1913     0F73  1D03               	btfss	3,2
  1914     0F74  2F76               	goto	u1341
  1915     0F75  2F77               	goto	u1340
  1916     0F76                     u1341:
  1917     0F76  2F80               	goto	l1265
  1918     0F77                     u1340:
  1919     0F77                     l1261:
  1920     0F77  3000               	movlw	0
  1921     0F78  00ED               	movwf	?___fltol+3
  1922     0F79  3000               	movlw	0
  1923     0F7A  00EC               	movwf	?___fltol+2
  1924     0F7B  3000               	movlw	0
  1925     0F7C  00EB               	movwf	?___fltol+1
  1926     0F7D  3000               	movlw	0
  1927     0F7E  00EA               	movwf	?___fltol
  1928     0F7F  2FFF               	goto	l385
  1929     0F80                     l1265:
  1930     0F80  086A               	movf	___fltol@f1,w
  1931     0F81  1683               	bsf	3,5	;RP0=1, select bank1
  1932     0F82  1303               	bcf	3,6	;RP1=0, select bank1
  1933     0F83  00A8               	movwf	??___fltol^(0+128)
  1934     0F84  1283               	bcf	3,5	;RP0=0, select bank0
  1935     0F85  1303               	bcf	3,6	;RP1=0, select bank0
  1936     0F86  086B               	movf	___fltol@f1+1,w
  1937     0F87  1683               	bsf	3,5	;RP0=1, select bank1
  1938     0F88  1303               	bcf	3,6	;RP1=0, select bank1
  1939     0F89  00A9               	movwf	(??___fltol^(0+128)+1)
  1940     0F8A  1283               	bcf	3,5	;RP0=0, select bank0
  1941     0F8B  1303               	bcf	3,6	;RP1=0, select bank0
  1942     0F8C  086C               	movf	___fltol@f1+2,w
  1943     0F8D  1683               	bsf	3,5	;RP0=1, select bank1
  1944     0F8E  1303               	bcf	3,6	;RP1=0, select bank1
  1945     0F8F  00AA               	movwf	(??___fltol^(0+128)+2)
  1946     0F90  1283               	bcf	3,5	;RP0=0, select bank0
  1947     0F91  1303               	bcf	3,6	;RP1=0, select bank0
  1948     0F92  086D               	movf	___fltol@f1+3,w
  1949     0F93  1683               	bsf	3,5	;RP0=1, select bank1
  1950     0F94  1303               	bcf	3,6	;RP1=0, select bank1
  1951     0F95  00AB               	movwf	(??___fltol^(0+128)+3)
  1952     0F96  301F               	movlw	31
  1953     0F97                     u1355:
  1954     0F97  1003               	clrc
  1955     0F98  0CAB               	rrf	(??___fltol^(0+128)+3),f
  1956     0F99  0CAA               	rrf	(??___fltol^(0+128)+2),f
  1957     0F9A  0CA9               	rrf	(??___fltol^(0+128)+1),f
  1958     0F9B  0CA8               	rrf	??___fltol^(0+128),f
  1959     0F9C                     u1350:
  1960     0F9C  3EFF               	addlw	-1
  1961     0F9D  1D03               	skipz
  1962     0F9E  2F97               	goto	u1355
  1963     0F9F  0828               	movf	??___fltol^(0+128),w
  1964     0FA0  1283               	bcf	3,5	;RP0=0, select bank0
  1965     0FA1  1303               	bcf	3,6	;RP1=0, select bank0
  1966     0FA2  00EE               	movwf	___fltol@sign1
  1967     0FA3                     l1267:
  1968     0FA3  17EC               	bsf	___fltol@f1+2,7
  1969     0FA4                     l1269:
  1970     0FA4  30FF               	movlw	255
  1971     0FA5  05EA               	andwf	___fltol@f1,f
  1972     0FA6  30FF               	movlw	255
  1973     0FA7  05EB               	andwf	___fltol@f1+1,f
  1974     0FA8  30FF               	movlw	255
  1975     0FA9  05EC               	andwf	___fltol@f1+2,f
  1976     0FAA  3000               	movlw	0
  1977     0FAB  05ED               	andwf	___fltol@f1+3,f
  1978     0FAC                     l1271:
  1979     0FAC  3096               	movlw	150
  1980     0FAD  02EF               	subwf	___fltol@exp1,f
  1981     0FAE                     l1273:
  1982     0FAE  1FEF               	btfss	___fltol@exp1,7
  1983     0FAF  2FB1               	goto	u1361
  1984     0FB0  2FB2               	goto	u1360
  1985     0FB1                     u1361:
  1986     0FB1  2FD0               	goto	l1283
  1987     0FB2                     u1360:
  1988     0FB2                     l1275:
  1989     0FB2  086F               	movf	___fltol@exp1,w
  1990     0FB3  3A80               	xorlw	128
  1991     0FB4  3E97               	addlw	151
  1992     0FB5  1803               	skipnc
  1993     0FB6  2FB8               	goto	u1371
  1994     0FB7  2FB9               	goto	u1370
  1995     0FB8                     u1371:
  1996     0FB8  2FBA               	goto	l1281
  1997     0FB9                     u1370:
  1998     0FB9  2F77               	goto	l1261
  1999     0FBA                     l1281:
  2000     0FBA  3001               	movlw	1
  2001     0FBB                     u1385:
  2002     0FBB  1003               	clrc
  2003     0FBC  0CED               	rrf	___fltol@f1+3,f
  2004     0FBD  0CEC               	rrf	___fltol@f1+2,f
  2005     0FBE  0CEB               	rrf	___fltol@f1+1,f
  2006     0FBF  0CEA               	rrf	___fltol@f1,f
  2007     0FC0  3EFF               	addlw	-1
  2008     0FC1  1D03               	skipz
  2009     0FC2  2FBB               	goto	u1385
  2010     0FC3  3001               	movlw	1
  2011     0FC4  1683               	bsf	3,5	;RP0=1, select bank1
  2012     0FC5  1303               	bcf	3,6	;RP1=0, select bank1
  2013     0FC6  00A8               	movwf	??___fltol^(0+128)
  2014     0FC7  0828               	movf	??___fltol^(0+128),w
  2015     0FC8  1283               	bcf	3,5	;RP0=0, select bank0
  2016     0FC9  1303               	bcf	3,6	;RP1=0, select bank0
  2017     0FCA  07EF               	addwf	___fltol@exp1,f
  2018     0FCB  1D03               	btfss	3,2
  2019     0FCC  2FCE               	goto	u1391
  2020     0FCD  2FCF               	goto	u1390
  2021     0FCE                     u1391:
  2022     0FCE  2FBA               	goto	l1281
  2023     0FCF                     u1390:
  2024     0FCF  2FEF               	goto	l1291
  2025     0FD0                     l1283:
  2026     0FD0  3020               	movlw	32
  2027     0FD1  026F               	subwf	___fltol@exp1,w
  2028     0FD2  1C03               	skipc
  2029     0FD3  2FD5               	goto	u1401
  2030     0FD4  2FD6               	goto	u1400
  2031     0FD5                     u1401:
  2032     0FD5  2FEA               	goto	l392
  2033     0FD6                     u1400:
  2034     0FD6  2F77               	goto	l1261
  2035     0FD7                     l1289:
  2036     0FD7  3001               	movlw	1
  2037     0FD8  1683               	bsf	3,5	;RP0=1, select bank1
  2038     0FD9  1303               	bcf	3,6	;RP1=0, select bank1
  2039     0FDA  00A8               	movwf	??___fltol^(0+128)
  2040     0FDB                     u1415:
  2041     0FDB  1003               	clrc
  2042     0FDC  1283               	bcf	3,5	;RP0=0, select bank0
  2043     0FDD  1303               	bcf	3,6	;RP1=0, select bank0
  2044     0FDE  0DEA               	rlf	___fltol@f1,f
  2045     0FDF  0DEB               	rlf	___fltol@f1+1,f
  2046     0FE0  0DEC               	rlf	___fltol@f1+2,f
  2047     0FE1  0DED               	rlf	___fltol@f1+3,f
  2048     0FE2  1683               	bsf	3,5	;RP0=1, select bank1
  2049     0FE3  1303               	bcf	3,6	;RP1=0, select bank1
  2050     0FE4  0BA8               	decfsz	??___fltol^(0+128),f
  2051     0FE5  2FDB               	goto	u1415
  2052     0FE6  3001               	movlw	1
  2053     0FE7  1283               	bcf	3,5	;RP0=0, select bank0
  2054     0FE8  1303               	bcf	3,6	;RP1=0, select bank0
  2055     0FE9  02EF               	subwf	___fltol@exp1,f
  2056     0FEA                     l392:
  2057     0FEA  086F               	movf	___fltol@exp1,w
  2058     0FEB  1D03               	btfss	3,2
  2059     0FEC  2FEE               	goto	u1421
  2060     0FED  2FEF               	goto	u1420
  2061     0FEE                     u1421:
  2062     0FEE  2FD7               	goto	l1289
  2063     0FEF                     u1420:
  2064     0FEF                     l1291:
  2065     0FEF  086E               	movf	___fltol@sign1,w
  2066     0FF0  1903               	btfsc	3,2
  2067     0FF1  2FF3               	goto	u1431
  2068     0FF2  2FF4               	goto	u1430
  2069     0FF3                     u1431:
  2070     0FF3  2FFF               	goto	l395
  2071     0FF4                     u1430:
  2072     0FF4                     l1293:
  2073     0FF4  09EA               	comf	___fltol@f1,f
  2074     0FF5  09EB               	comf	___fltol@f1+1,f
  2075     0FF6  09EC               	comf	___fltol@f1+2,f
  2076     0FF7  09ED               	comf	___fltol@f1+3,f
  2077     0FF8  0AEA               	incf	___fltol@f1,f
  2078     0FF9  1903               	skipnz
  2079     0FFA  0AEB               	incf	___fltol@f1+1,f
  2080     0FFB  1903               	skipnz
  2081     0FFC  0AEC               	incf	___fltol@f1+2,f
  2082     0FFD  1903               	skipnz
  2083     0FFE  0AED               	incf	___fltol@f1+3,f
  2084     0FFF                     l395:
  2085     0FFF                     l385:
  2086     0FFF  0008               	return
  2087     1000                     __end_of___fltol:
  2088                           
  2089                           	psect	text11
  2090     04A5                     __ptext11:	
  2091 ;; *************** function ___flmul *****************
  2092 ;; Defined at:
  2093 ;;		line 8 in file "C:\Program Files\Microchip\xc8\v2.40\pic\sources\c90\common\sprcmul.c"
  2094 ;; Parameters:    Size  Location     Type
  2095 ;;  b               4   48[BANK0 ] long 
  2096 ;;  a               4   52[BANK0 ] long 
  2097 ;; Auto vars:     Size  Location     Type
  2098 ;;  prod            4   68[BANK0 ] struct .
  2099 ;;  grs             4   62[BANK0 ] unsigned long 
  2100 ;;  temp            2   72[BANK0 ] struct .
  2101 ;;  bexp            1   67[BANK0 ] unsigned char 
  2102 ;;  aexp            1   66[BANK0 ] unsigned char 
  2103 ;;  sign            1   61[BANK0 ] unsigned char 
  2104 ;; Return value:  Size  Location     Type
  2105 ;;                  4   48[BANK0 ] unsigned char 
  2106 ;; Registers used:
  2107 ;;		wreg, status,2, status,0, btemp+1, pclath, cstack
  2108 ;; Tracked objects:
  2109 ;;		On entry : 0/0
  2110 ;;		On exit  : 0/0
  2111 ;;		Unchanged: 0/0
  2112 ;; Data sizes:     COMMON   BANK0   BANK1   BANK3   BANK2
  2113 ;;      Params:         0       8       0       0       0
  2114 ;;      Locals:         0      13       0       0       0
  2115 ;;      Temps:          0       5       0       0       0
  2116 ;;      Totals:         0      26       0       0       0
  2117 ;;Total ram usage:       26 bytes
  2118 ;; Hardware stack levels used: 1
  2119 ;; Hardware stack levels required when called: 1
  2120 ;; This function calls:
  2121 ;;		__Umul8_16
  2122 ;; This function is called by:
  2123 ;;		_PWM1_Duty
  2124 ;;		_PWM2_Duty
  2125 ;; This function uses a non-reentrant model
  2126 ;;
  2127                           
  2128     04A5                     ___flmul:	
  2129                           ;psect for function ___flmul
  2130                           
  2131     04A5                     l1437:	
  2132                           ;incstack = 0
  2133                           ; Regs used in ___flmul: [wreg+status,2+status,0+btemp+1+pclath+cstack]
  2134                           
  2135     04A5  1283               	bcf	3,5	;RP0=0, select bank0
  2136     04A6  1303               	bcf	3,6	;RP1=0, select bank0
  2137     04A7  0853               	movf	___flmul@b+3,w
  2138     04A8  3980               	andlw	128
  2139     04A9  00DD               	movwf	___flmul@sign
  2140     04AA                     l1439:
  2141     04AA  0853               	movf	___flmul@b+3,w
  2142     04AB  00D8               	movwf	??___flmul
  2143     04AC  0758               	addwf	??___flmul,w
  2144     04AD  00E3               	movwf	___flmul@bexp
  2145     04AE                     l1441:
  2146     04AE  1FD2               	btfss	___flmul@b+2,7
  2147     04AF  2CB1               	goto	u1731
  2148     04B0  2CB2               	goto	u1730
  2149     04B1                     u1731:
  2150     04B1  2CB3               	goto	l1445
  2151     04B2                     u1730:
  2152     04B2                     l1443:
  2153     04B2  1463               	bsf	___flmul@bexp,0
  2154     04B3                     l1445:
  2155     04B3  0863               	movf	___flmul@bexp,w
  2156     04B4  1903               	btfsc	3,2
  2157     04B5  2CB7               	goto	u1741
  2158     04B6  2CB8               	goto	u1740
  2159     04B7                     u1741:
  2160     04B7  2CC7               	goto	l1453
  2161     04B8                     u1740:
  2162     04B8                     l1447:
  2163     04B8  0A63               	incf	___flmul@bexp,w
  2164     04B9  1D03               	btfss	3,2
  2165     04BA  2CBC               	goto	u1751
  2166     04BB  2CBD               	goto	u1750
  2167     04BC                     u1751:
  2168     04BC  2CC5               	goto	l1451
  2169     04BD                     u1750:
  2170     04BD                     l1449:
  2171     04BD  3000               	movlw	0
  2172     04BE  00D3               	movwf	___flmul@b+3
  2173     04BF  3000               	movlw	0
  2174     04C0  00D2               	movwf	___flmul@b+2
  2175     04C1  3000               	movlw	0
  2176     04C2  00D1               	movwf	___flmul@b+1
  2177     04C3  3000               	movlw	0
  2178     04C4  00D0               	movwf	___flmul@b
  2179     04C5                     l1451:
  2180     04C5  17D2               	bsf	___flmul@b+2,7
  2181     04C6  2CCF               	goto	l1455
  2182     04C7                     l1453:
  2183     04C7  3000               	movlw	0
  2184     04C8  00D3               	movwf	___flmul@b+3
  2185     04C9  3000               	movlw	0
  2186     04CA  00D2               	movwf	___flmul@b+2
  2187     04CB  3000               	movlw	0
  2188     04CC  00D1               	movwf	___flmul@b+1
  2189     04CD  3000               	movlw	0
  2190     04CE  00D0               	movwf	___flmul@b
  2191     04CF                     l1455:
  2192     04CF  0857               	movf	___flmul@a+3,w
  2193     04D0  3980               	andlw	128
  2194     04D1  00D8               	movwf	??___flmul
  2195     04D2  0858               	movf	??___flmul,w
  2196     04D3  06DD               	xorwf	___flmul@sign,f
  2197     04D4                     l1457:
  2198     04D4  0857               	movf	___flmul@a+3,w
  2199     04D5  00D8               	movwf	??___flmul
  2200     04D6  0758               	addwf	??___flmul,w
  2201     04D7  00E2               	movwf	___flmul@aexp
  2202     04D8                     l1459:
  2203     04D8  1FD6               	btfss	___flmul@a+2,7
  2204     04D9  2CDB               	goto	u1761
  2205     04DA  2CDC               	goto	u1760
  2206     04DB                     u1761:
  2207     04DB  2CDD               	goto	l1463
  2208     04DC                     u1760:
  2209     04DC                     l1461:
  2210     04DC  1462               	bsf	___flmul@aexp,0
  2211     04DD                     l1463:
  2212     04DD  0862               	movf	___flmul@aexp,w
  2213     04DE  1903               	btfsc	3,2
  2214     04DF  2CE1               	goto	u1771
  2215     04E0  2CE2               	goto	u1770
  2216     04E1                     u1771:
  2217     04E1  2CF1               	goto	l1471
  2218     04E2                     u1770:
  2219     04E2                     l1465:
  2220     04E2  0A62               	incf	___flmul@aexp,w
  2221     04E3  1D03               	btfss	3,2
  2222     04E4  2CE6               	goto	u1781
  2223     04E5  2CE7               	goto	u1780
  2224     04E6                     u1781:
  2225     04E6  2CEF               	goto	l1469
  2226     04E7                     u1780:
  2227     04E7                     l1467:
  2228     04E7  3000               	movlw	0
  2229     04E8  00D7               	movwf	___flmul@a+3
  2230     04E9  3000               	movlw	0
  2231     04EA  00D6               	movwf	___flmul@a+2
  2232     04EB  3000               	movlw	0
  2233     04EC  00D5               	movwf	___flmul@a+1
  2234     04ED  3000               	movlw	0
  2235     04EE  00D4               	movwf	___flmul@a
  2236     04EF                     l1469:
  2237     04EF  17D6               	bsf	___flmul@a+2,7
  2238     04F0  2CF9               	goto	l1473
  2239     04F1                     l1471:
  2240     04F1  3000               	movlw	0
  2241     04F2  00D7               	movwf	___flmul@a+3
  2242     04F3  3000               	movlw	0
  2243     04F4  00D6               	movwf	___flmul@a+2
  2244     04F5  3000               	movlw	0
  2245     04F6  00D5               	movwf	___flmul@a+1
  2246     04F7  3000               	movlw	0
  2247     04F8  00D4               	movwf	___flmul@a
  2248     04F9                     l1473:
  2249     04F9  0862               	movf	___flmul@aexp,w
  2250     04FA  1903               	btfsc	3,2
  2251     04FB  2CFD               	goto	u1791
  2252     04FC  2CFE               	goto	u1790
  2253     04FD                     u1791:
  2254     04FD  2D03               	goto	l1477
  2255     04FE                     u1790:
  2256     04FE                     l1475:
  2257     04FE  0863               	movf	___flmul@bexp,w
  2258     04FF  1D03               	btfss	3,2
  2259     0500  2D02               	goto	u1801
  2260     0501  2D03               	goto	u1800
  2261     0502                     u1801:
  2262     0502  2D0C               	goto	l1481
  2263     0503                     u1800:
  2264     0503                     l1477:
  2265     0503  3000               	movlw	0
  2266     0504  00D3               	movwf	?___flmul+3
  2267     0505  3000               	movlw	0
  2268     0506  00D2               	movwf	?___flmul+2
  2269     0507  3000               	movlw	0
  2270     0508  00D1               	movwf	?___flmul+1
  2271     0509  3000               	movlw	0
  2272     050A  00D0               	movwf	?___flmul
  2273     050B  2FE9               	goto	l588
  2274     050C                     l1481:
  2275     050C  0850               	movf	___flmul@b,w
  2276     050D  00F0               	movwf	__Umul8_16@multiplicand
  2277     050E  0856               	movf	___flmul@a+2,w
  2278     050F  120A  158A  26A2  120A  118A  	fcall	__Umul8_16
  2279     0514  0871               	movf	?__Umul8_16+1,w
  2280     0515  1283               	bcf	3,5	;RP0=0, select bank0
  2281     0516  1303               	bcf	3,6	;RP1=0, select bank0
  2282     0517  00E9               	movwf	___flmul@temp+1
  2283     0518  0870               	movf	?__Umul8_16,w
  2284     0519  00E8               	movwf	___flmul@temp
  2285     051A                     l1483:
  2286     051A  0868               	movf	___flmul@temp,w
  2287     051B  00D8               	movwf	??___flmul
  2288     051C  01D9               	clrf	??___flmul+1
  2289     051D  01DA               	clrf	??___flmul+2
  2290     051E  01DB               	clrf	??___flmul+3
  2291     051F  085B               	movf	??___flmul+3,w
  2292     0520  00E1               	movwf	___flmul@grs+3
  2293     0521  085A               	movf	??___flmul+2,w
  2294     0522  00E0               	movwf	___flmul@grs+2
  2295     0523  0859               	movf	??___flmul+1,w
  2296     0524  00DF               	movwf	___flmul@grs+1
  2297     0525  0858               	movf	??___flmul,w
  2298     0526  00DE               	movwf	___flmul@grs
  2299     0527                     l1485:
  2300     0527  0869               	movf	___flmul@temp+1,w
  2301     0528  00D8               	movwf	??___flmul
  2302     0529  01D9               	clrf	??___flmul+1
  2303     052A  01DA               	clrf	??___flmul+2
  2304     052B  01DB               	clrf	??___flmul+3
  2305     052C  085B               	movf	??___flmul+3,w
  2306     052D  00E7               	movwf	___flmul@prod+3
  2307     052E  085A               	movf	??___flmul+2,w
  2308     052F  00E6               	movwf	___flmul@prod+2
  2309     0530  0859               	movf	??___flmul+1,w
  2310     0531  00E5               	movwf	___flmul@prod+1
  2311     0532  0858               	movf	??___flmul,w
  2312     0533  00E4               	movwf	___flmul@prod
  2313     0534  0851               	movf	___flmul@b+1,w
  2314     0535  00F0               	movwf	__Umul8_16@multiplicand
  2315     0536  0855               	movf	___flmul@a+1,w
  2316     0537  120A  158A  26A2  120A  118A  	fcall	__Umul8_16
  2317     053C  0871               	movf	?__Umul8_16+1,w
  2318     053D  1283               	bcf	3,5	;RP0=0, select bank0
  2319     053E  1303               	bcf	3,6	;RP1=0, select bank0
  2320     053F  00E9               	movwf	___flmul@temp+1
  2321     0540  0870               	movf	?__Umul8_16,w
  2322     0541  00E8               	movwf	___flmul@temp
  2323     0542                     l1487:
  2324     0542  0868               	movf	___flmul@temp,w
  2325     0543  00D8               	movwf	??___flmul
  2326     0544  01D9               	clrf	??___flmul+1
  2327     0545  01DA               	clrf	??___flmul+2
  2328     0546  01DB               	clrf	??___flmul+3
  2329     0547  0858               	movf	??___flmul,w
  2330     0548  07DE               	addwf	___flmul@grs,f
  2331     0549  0859               	movf	??___flmul+1,w
  2332     054A  1103               	clrz
  2333     054B  1803               	skipnc
  2334     054C  3E01               	addlw	1
  2335     054D  1903               	skipnz
  2336     054E  2D50               	goto	u1811
  2337     054F  07DF               	addwf	___flmul@grs+1,f
  2338     0550                     u1811:
  2339     0550  085A               	movf	??___flmul+2,w
  2340     0551  1103               	clrz
  2341     0552  1803               	skipnc
  2342     0553  3E01               	addlw	1
  2343     0554  1903               	skipnz
  2344     0555  2D57               	goto	u1812
  2345     0556  07E0               	addwf	___flmul@grs+2,f
  2346     0557                     u1812:
  2347     0557  085B               	movf	??___flmul+3,w
  2348     0558  1103               	clrz
  2349     0559  1803               	skipnc
  2350     055A  3E01               	addlw	1
  2351     055B  1903               	skipnz
  2352     055C  2D5E               	goto	u1813
  2353     055D  07E1               	addwf	___flmul@grs+3,f
  2354     055E                     u1813:
  2355     055E                     l1489:
  2356     055E  0869               	movf	___flmul@temp+1,w
  2357     055F  00D8               	movwf	??___flmul
  2358     0560  01D9               	clrf	??___flmul+1
  2359     0561  01DA               	clrf	??___flmul+2
  2360     0562  01DB               	clrf	??___flmul+3
  2361     0563  0858               	movf	??___flmul,w
  2362     0564  07E4               	addwf	___flmul@prod,f
  2363     0565  0859               	movf	??___flmul+1,w
  2364     0566  1103               	clrz
  2365     0567  1803               	skipnc
  2366     0568  3E01               	addlw	1
  2367     0569  1903               	skipnz
  2368     056A  2D6C               	goto	u1821
  2369     056B  07E5               	addwf	___flmul@prod+1,f
  2370     056C                     u1821:
  2371     056C  085A               	movf	??___flmul+2,w
  2372     056D  1103               	clrz
  2373     056E  1803               	skipnc
  2374     056F  3E01               	addlw	1
  2375     0570  1903               	skipnz
  2376     0571  2D73               	goto	u1822
  2377     0572  07E6               	addwf	___flmul@prod+2,f
  2378     0573                     u1822:
  2379     0573  085B               	movf	??___flmul+3,w
  2380     0574  1103               	clrz
  2381     0575  1803               	skipnc
  2382     0576  3E01               	addlw	1
  2383     0577  1903               	skipnz
  2384     0578  2D7A               	goto	u1823
  2385     0579  07E7               	addwf	___flmul@prod+3,f
  2386     057A                     u1823:
  2387     057A  0852               	movf	___flmul@b+2,w
  2388     057B  00F0               	movwf	__Umul8_16@multiplicand
  2389     057C  0854               	movf	___flmul@a,w
  2390     057D  120A  158A  26A2  120A  118A  	fcall	__Umul8_16
  2391     0582  0871               	movf	?__Umul8_16+1,w
  2392     0583  1283               	bcf	3,5	;RP0=0, select bank0
  2393     0584  1303               	bcf	3,6	;RP1=0, select bank0
  2394     0585  00E9               	movwf	___flmul@temp+1
  2395     0586  0870               	movf	?__Umul8_16,w
  2396     0587  00E8               	movwf	___flmul@temp
  2397     0588                     l1491:
  2398     0588  0868               	movf	___flmul@temp,w
  2399     0589  00D8               	movwf	??___flmul
  2400     058A  01D9               	clrf	??___flmul+1
  2401     058B  01DA               	clrf	??___flmul+2
  2402     058C  01DB               	clrf	??___flmul+3
  2403     058D  0858               	movf	??___flmul,w
  2404     058E  07DE               	addwf	___flmul@grs,f
  2405     058F  0859               	movf	??___flmul+1,w
  2406     0590  1103               	clrz
  2407     0591  1803               	skipnc
  2408     0592  3E01               	addlw	1
  2409     0593  1903               	skipnz
  2410     0594  2D96               	goto	u1831
  2411     0595  07DF               	addwf	___flmul@grs+1,f
  2412     0596                     u1831:
  2413     0596  085A               	movf	??___flmul+2,w
  2414     0597  1103               	clrz
  2415     0598  1803               	skipnc
  2416     0599  3E01               	addlw	1
  2417     059A  1903               	skipnz
  2418     059B  2D9D               	goto	u1832
  2419     059C  07E0               	addwf	___flmul@grs+2,f
  2420     059D                     u1832:
  2421     059D  085B               	movf	??___flmul+3,w
  2422     059E  1103               	clrz
  2423     059F  1803               	skipnc
  2424     05A0  3E01               	addlw	1
  2425     05A1  1903               	skipnz
  2426     05A2  2DA4               	goto	u1833
  2427     05A3  07E1               	addwf	___flmul@grs+3,f
  2428     05A4                     u1833:
  2429     05A4                     l1493:
  2430     05A4  0869               	movf	___flmul@temp+1,w
  2431     05A5  00D8               	movwf	??___flmul
  2432     05A6  01D9               	clrf	??___flmul+1
  2433     05A7  01DA               	clrf	??___flmul+2
  2434     05A8  01DB               	clrf	??___flmul+3
  2435     05A9  0858               	movf	??___flmul,w
  2436     05AA  07E4               	addwf	___flmul@prod,f
  2437     05AB  0859               	movf	??___flmul+1,w
  2438     05AC  1103               	clrz
  2439     05AD  1803               	skipnc
  2440     05AE  3E01               	addlw	1
  2441     05AF  1903               	skipnz
  2442     05B0  2DB2               	goto	u1841
  2443     05B1  07E5               	addwf	___flmul@prod+1,f
  2444     05B2                     u1841:
  2445     05B2  085A               	movf	??___flmul+2,w
  2446     05B3  1103               	clrz
  2447     05B4  1803               	skipnc
  2448     05B5  3E01               	addlw	1
  2449     05B6  1903               	skipnz
  2450     05B7  2DB9               	goto	u1842
  2451     05B8  07E6               	addwf	___flmul@prod+2,f
  2452     05B9                     u1842:
  2453     05B9  085B               	movf	??___flmul+3,w
  2454     05BA  1103               	clrz
  2455     05BB  1803               	skipnc
  2456     05BC  3E01               	addlw	1
  2457     05BD  1903               	skipnz
  2458     05BE  2DC0               	goto	u1843
  2459     05BF  07E7               	addwf	___flmul@prod+3,f
  2460     05C0                     u1843:
  2461     05C0                     l1495:
  2462     05C0  3008               	movlw	8
  2463     05C1  00D8               	movwf	??___flmul
  2464     05C2                     u1855:
  2465     05C2  1003               	clrc
  2466     05C3  0DDE               	rlf	___flmul@grs,f
  2467     05C4  0DDF               	rlf	___flmul@grs+1,f
  2468     05C5  0DE0               	rlf	___flmul@grs+2,f
  2469     05C6  0DE1               	rlf	___flmul@grs+3,f
  2470     05C7  0BD8               	decfsz	??___flmul,f
  2471     05C8  2DC2               	goto	u1855
  2472     05C9                     l1497:
  2473     05C9  0851               	movf	___flmul@b+1,w
  2474     05CA  00F0               	movwf	__Umul8_16@multiplicand
  2475     05CB  0854               	movf	___flmul@a,w
  2476     05CC  120A  158A  26A2  120A  118A  	fcall	__Umul8_16
  2477     05D1  0871               	movf	?__Umul8_16+1,w
  2478     05D2  1283               	bcf	3,5	;RP0=0, select bank0
  2479     05D3  1303               	bcf	3,6	;RP1=0, select bank0
  2480     05D4  00E9               	movwf	___flmul@temp+1
  2481     05D5  0870               	movf	?__Umul8_16,w
  2482     05D6  00E8               	movwf	___flmul@temp
  2483     05D7                     l1499:
  2484     05D7  0868               	movf	___flmul@temp,w
  2485     05D8  00D8               	movwf	??___flmul
  2486     05D9  0869               	movf	___flmul@temp+1,w
  2487     05DA  00D9               	movwf	??___flmul+1
  2488     05DB  01DA               	clrf	??___flmul+2
  2489     05DC  01DB               	clrf	??___flmul+3
  2490     05DD  0858               	movf	??___flmul,w
  2491     05DE  07DE               	addwf	___flmul@grs,f
  2492     05DF  0859               	movf	??___flmul+1,w
  2493     05E0  1103               	clrz
  2494     05E1  1803               	skipnc
  2495     05E2  3E01               	addlw	1
  2496     05E3  1903               	skipnz
  2497     05E4  2DE6               	goto	u1861
  2498     05E5  07DF               	addwf	___flmul@grs+1,f
  2499     05E6                     u1861:
  2500     05E6  085A               	movf	??___flmul+2,w
  2501     05E7  1103               	clrz
  2502     05E8  1803               	skipnc
  2503     05E9  3E01               	addlw	1
  2504     05EA  1903               	skipnz
  2505     05EB  2DED               	goto	u1862
  2506     05EC  07E0               	addwf	___flmul@grs+2,f
  2507     05ED                     u1862:
  2508     05ED  085B               	movf	??___flmul+3,w
  2509     05EE  1103               	clrz
  2510     05EF  1803               	skipnc
  2511     05F0  3E01               	addlw	1
  2512     05F1  1903               	skipnz
  2513     05F2  2DF4               	goto	u1863
  2514     05F3  07E1               	addwf	___flmul@grs+3,f
  2515     05F4                     u1863:
  2516     05F4                     l1501:
  2517     05F4  0850               	movf	___flmul@b,w
  2518     05F5  00F0               	movwf	__Umul8_16@multiplicand
  2519     05F6  0855               	movf	___flmul@a+1,w
  2520     05F7  120A  158A  26A2  120A  118A  	fcall	__Umul8_16
  2521     05FC  0871               	movf	?__Umul8_16+1,w
  2522     05FD  1283               	bcf	3,5	;RP0=0, select bank0
  2523     05FE  1303               	bcf	3,6	;RP1=0, select bank0
  2524     05FF  00E9               	movwf	___flmul@temp+1
  2525     0600  0870               	movf	?__Umul8_16,w
  2526     0601  00E8               	movwf	___flmul@temp
  2527     0602                     l1503:
  2528     0602  0868               	movf	___flmul@temp,w
  2529     0603  00D8               	movwf	??___flmul
  2530     0604  0869               	movf	___flmul@temp+1,w
  2531     0605  00D9               	movwf	??___flmul+1
  2532     0606  01DA               	clrf	??___flmul+2
  2533     0607  01DB               	clrf	??___flmul+3
  2534     0608  0858               	movf	??___flmul,w
  2535     0609  07DE               	addwf	___flmul@grs,f
  2536     060A  0859               	movf	??___flmul+1,w
  2537     060B  1103               	clrz
  2538     060C  1803               	skipnc
  2539     060D  3E01               	addlw	1
  2540     060E  1903               	skipnz
  2541     060F  2E11               	goto	u1871
  2542     0610  07DF               	addwf	___flmul@grs+1,f
  2543     0611                     u1871:
  2544     0611  085A               	movf	??___flmul+2,w
  2545     0612  1103               	clrz
  2546     0613  1803               	skipnc
  2547     0614  3E01               	addlw	1
  2548     0615  1903               	skipnz
  2549     0616  2E18               	goto	u1872
  2550     0617  07E0               	addwf	___flmul@grs+2,f
  2551     0618                     u1872:
  2552     0618  085B               	movf	??___flmul+3,w
  2553     0619  1103               	clrz
  2554     061A  1803               	skipnc
  2555     061B  3E01               	addlw	1
  2556     061C  1903               	skipnz
  2557     061D  2E1F               	goto	u1873
  2558     061E  07E1               	addwf	___flmul@grs+3,f
  2559     061F                     u1873:
  2560     061F                     l1505:
  2561     061F  3008               	movlw	8
  2562     0620  00D8               	movwf	??___flmul
  2563     0621                     u1885:
  2564     0621  1003               	clrc
  2565     0622  0DDE               	rlf	___flmul@grs,f
  2566     0623  0DDF               	rlf	___flmul@grs+1,f
  2567     0624  0DE0               	rlf	___flmul@grs+2,f
  2568     0625  0DE1               	rlf	___flmul@grs+3,f
  2569     0626  0BD8               	decfsz	??___flmul,f
  2570     0627  2E21               	goto	u1885
  2571     0628  0850               	movf	___flmul@b,w
  2572     0629  00F0               	movwf	__Umul8_16@multiplicand
  2573     062A  0854               	movf	___flmul@a,w
  2574     062B  120A  158A  26A2  120A  118A  	fcall	__Umul8_16
  2575     0630  0871               	movf	?__Umul8_16+1,w
  2576     0631  1283               	bcf	3,5	;RP0=0, select bank0
  2577     0632  1303               	bcf	3,6	;RP1=0, select bank0
  2578     0633  00E9               	movwf	___flmul@temp+1
  2579     0634  0870               	movf	?__Umul8_16,w
  2580     0635  00E8               	movwf	___flmul@temp
  2581     0636                     l1507:
  2582     0636  0868               	movf	___flmul@temp,w
  2583     0637  00D8               	movwf	??___flmul
  2584     0638  0869               	movf	___flmul@temp+1,w
  2585     0639  00D9               	movwf	??___flmul+1
  2586     063A  01DA               	clrf	??___flmul+2
  2587     063B  01DB               	clrf	??___flmul+3
  2588     063C  0858               	movf	??___flmul,w
  2589     063D  07DE               	addwf	___flmul@grs,f
  2590     063E  0859               	movf	??___flmul+1,w
  2591     063F  1103               	clrz
  2592     0640  1803               	skipnc
  2593     0641  3E01               	addlw	1
  2594     0642  1903               	skipnz
  2595     0643  2E45               	goto	u1891
  2596     0644  07DF               	addwf	___flmul@grs+1,f
  2597     0645                     u1891:
  2598     0645  085A               	movf	??___flmul+2,w
  2599     0646  1103               	clrz
  2600     0647  1803               	skipnc
  2601     0648  3E01               	addlw	1
  2602     0649  1903               	skipnz
  2603     064A  2E4C               	goto	u1892
  2604     064B  07E0               	addwf	___flmul@grs+2,f
  2605     064C                     u1892:
  2606     064C  085B               	movf	??___flmul+3,w
  2607     064D  1103               	clrz
  2608     064E  1803               	skipnc
  2609     064F  3E01               	addlw	1
  2610     0650  1903               	skipnz
  2611     0651  2E53               	goto	u1893
  2612     0652  07E1               	addwf	___flmul@grs+3,f
  2613     0653                     u1893:
  2614     0653                     l1509:
  2615     0653  0851               	movf	___flmul@b+1,w
  2616     0654  00F0               	movwf	__Umul8_16@multiplicand
  2617     0655  0856               	movf	___flmul@a+2,w
  2618     0656  120A  158A  26A2  120A  118A  	fcall	__Umul8_16
  2619     065B  0871               	movf	?__Umul8_16+1,w
  2620     065C  1283               	bcf	3,5	;RP0=0, select bank0
  2621     065D  1303               	bcf	3,6	;RP1=0, select bank0
  2622     065E  00E9               	movwf	___flmul@temp+1
  2623     065F  0870               	movf	?__Umul8_16,w
  2624     0660  00E8               	movwf	___flmul@temp
  2625     0661  0868               	movf	___flmul@temp,w
  2626     0662  00D8               	movwf	??___flmul
  2627     0663  0869               	movf	___flmul@temp+1,w
  2628     0664  00D9               	movwf	??___flmul+1
  2629     0665  01DA               	clrf	??___flmul+2
  2630     0666  01DB               	clrf	??___flmul+3
  2631     0667  0858               	movf	??___flmul,w
  2632     0668  07E4               	addwf	___flmul@prod,f
  2633     0669  0859               	movf	??___flmul+1,w
  2634     066A  1103               	clrz
  2635     066B  1803               	skipnc
  2636     066C  3E01               	addlw	1
  2637     066D  1903               	skipnz
  2638     066E  2E70               	goto	u1901
  2639     066F  07E5               	addwf	___flmul@prod+1,f
  2640     0670                     u1901:
  2641     0670  085A               	movf	??___flmul+2,w
  2642     0671  1103               	clrz
  2643     0672  1803               	skipnc
  2644     0673  3E01               	addlw	1
  2645     0674  1903               	skipnz
  2646     0675  2E77               	goto	u1902
  2647     0676  07E6               	addwf	___flmul@prod+2,f
  2648     0677                     u1902:
  2649     0677  085B               	movf	??___flmul+3,w
  2650     0678  1103               	clrz
  2651     0679  1803               	skipnc
  2652     067A  3E01               	addlw	1
  2653     067B  1903               	skipnz
  2654     067C  2E7E               	goto	u1903
  2655     067D  07E7               	addwf	___flmul@prod+3,f
  2656     067E                     u1903:
  2657     067E                     l1511:
  2658     067E  0852               	movf	___flmul@b+2,w
  2659     067F  00F0               	movwf	__Umul8_16@multiplicand
  2660     0680  0855               	movf	___flmul@a+1,w
  2661     0681  120A  158A  26A2  120A  118A  	fcall	__Umul8_16
  2662     0686  0871               	movf	?__Umul8_16+1,w
  2663     0687  1283               	bcf	3,5	;RP0=0, select bank0
  2664     0688  1303               	bcf	3,6	;RP1=0, select bank0
  2665     0689  00E9               	movwf	___flmul@temp+1
  2666     068A  0870               	movf	?__Umul8_16,w
  2667     068B  00E8               	movwf	___flmul@temp
  2668     068C                     l1513:
  2669     068C  0868               	movf	___flmul@temp,w
  2670     068D  00D8               	movwf	??___flmul
  2671     068E  0869               	movf	___flmul@temp+1,w
  2672     068F  00D9               	movwf	??___flmul+1
  2673     0690  01DA               	clrf	??___flmul+2
  2674     0691  01DB               	clrf	??___flmul+3
  2675     0692  0858               	movf	??___flmul,w
  2676     0693  07E4               	addwf	___flmul@prod,f
  2677     0694  0859               	movf	??___flmul+1,w
  2678     0695  1103               	clrz
  2679     0696  1803               	skipnc
  2680     0697  3E01               	addlw	1
  2681     0698  1903               	skipnz
  2682     0699  2E9B               	goto	u1911
  2683     069A  07E5               	addwf	___flmul@prod+1,f
  2684     069B                     u1911:
  2685     069B  085A               	movf	??___flmul+2,w
  2686     069C  1103               	clrz
  2687     069D  1803               	skipnc
  2688     069E  3E01               	addlw	1
  2689     069F  1903               	skipnz
  2690     06A0  2EA2               	goto	u1912
  2691     06A1  07E6               	addwf	___flmul@prod+2,f
  2692     06A2                     u1912:
  2693     06A2  085B               	movf	??___flmul+3,w
  2694     06A3  1103               	clrz
  2695     06A4  1803               	skipnc
  2696     06A5  3E01               	addlw	1
  2697     06A6  1903               	skipnz
  2698     06A7  2EA9               	goto	u1913
  2699     06A8  07E7               	addwf	___flmul@prod+3,f
  2700     06A9                     u1913:
  2701     06A9  0852               	movf	___flmul@b+2,w
  2702     06AA  00F0               	movwf	__Umul8_16@multiplicand
  2703     06AB  0856               	movf	___flmul@a+2,w
  2704     06AC  120A  158A  26A2  120A  118A  	fcall	__Umul8_16
  2705     06B1  0871               	movf	?__Umul8_16+1,w
  2706     06B2  1283               	bcf	3,5	;RP0=0, select bank0
  2707     06B3  1303               	bcf	3,6	;RP1=0, select bank0
  2708     06B4  00E9               	movwf	___flmul@temp+1
  2709     06B5  0870               	movf	?__Umul8_16,w
  2710     06B6  00E8               	movwf	___flmul@temp
  2711     06B7                     l1515:
  2712     06B7  0868               	movf	___flmul@temp,w
  2713     06B8  00D8               	movwf	??___flmul
  2714     06B9  0869               	movf	___flmul@temp+1,w
  2715     06BA  00D9               	movwf	??___flmul+1
  2716     06BB  01DA               	clrf	??___flmul+2
  2717     06BC  01DB               	clrf	??___flmul+3
  2718     06BD  3008               	movlw	8
  2719     06BE                     u1925:
  2720     06BE  1003               	clrc
  2721     06BF  0DD8               	rlf	??___flmul,f
  2722     06C0  0DD9               	rlf	??___flmul+1,f
  2723     06C1  0DDA               	rlf	??___flmul+2,f
  2724     06C2  0DDB               	rlf	??___flmul+3,f
  2725     06C3                     u1920:
  2726     06C3  3EFF               	addlw	-1
  2727     06C4  1D03               	skipz
  2728     06C5  2EBE               	goto	u1925
  2729     06C6  0858               	movf	??___flmul,w
  2730     06C7  07E4               	addwf	___flmul@prod,f
  2731     06C8  0859               	movf	??___flmul+1,w
  2732     06C9  1103               	clrz
  2733     06CA  1803               	skipnc
  2734     06CB  3E01               	addlw	1
  2735     06CC  1903               	skipnz
  2736     06CD  2ECF               	goto	u1931
  2737     06CE  07E5               	addwf	___flmul@prod+1,f
  2738     06CF                     u1931:
  2739     06CF  085A               	movf	??___flmul+2,w
  2740     06D0  1103               	clrz
  2741     06D1  1803               	skipnc
  2742     06D2  3E01               	addlw	1
  2743     06D3  1903               	skipnz
  2744     06D4  2ED6               	goto	u1932
  2745     06D5  07E6               	addwf	___flmul@prod+2,f
  2746     06D6                     u1932:
  2747     06D6  085B               	movf	??___flmul+3,w
  2748     06D7  1103               	clrz
  2749     06D8  1803               	skipnc
  2750     06D9  3E01               	addlw	1
  2751     06DA  1903               	skipnz
  2752     06DB  2EDD               	goto	u1933
  2753     06DC  07E7               	addwf	___flmul@prod+3,f
  2754     06DD                     u1933:
  2755     06DD                     l1517:
  2756     06DD  085E               	movf	___flmul@grs,w
  2757     06DE  00D8               	movwf	??___flmul
  2758     06DF  085F               	movf	___flmul@grs+1,w
  2759     06E0  00D9               	movwf	??___flmul+1
  2760     06E1  0860               	movf	___flmul@grs+2,w
  2761     06E2  00DA               	movwf	??___flmul+2
  2762     06E3  0861               	movf	___flmul@grs+3,w
  2763     06E4  00DB               	movwf	??___flmul+3
  2764     06E5  3018               	movlw	24
  2765     06E6                     u1945:
  2766     06E6  1003               	clrc
  2767     06E7  0CDB               	rrf	??___flmul+3,f
  2768     06E8  0CDA               	rrf	??___flmul+2,f
  2769     06E9  0CD9               	rrf	??___flmul+1,f
  2770     06EA  0CD8               	rrf	??___flmul,f
  2771     06EB                     u1940:
  2772     06EB  3EFF               	addlw	-1
  2773     06EC  1D03               	skipz
  2774     06ED  2EE6               	goto	u1945
  2775     06EE  0858               	movf	??___flmul,w
  2776     06EF  07E4               	addwf	___flmul@prod,f
  2777     06F0  0859               	movf	??___flmul+1,w
  2778     06F1  1103               	clrz
  2779     06F2  1803               	skipnc
  2780     06F3  3E01               	addlw	1
  2781     06F4  1903               	skipnz
  2782     06F5  2EF7               	goto	u1951
  2783     06F6  07E5               	addwf	___flmul@prod+1,f
  2784     06F7                     u1951:
  2785     06F7  085A               	movf	??___flmul+2,w
  2786     06F8  1103               	clrz
  2787     06F9  1803               	skipnc
  2788     06FA  3E01               	addlw	1
  2789     06FB  1903               	skipnz
  2790     06FC  2EFE               	goto	u1952
  2791     06FD  07E6               	addwf	___flmul@prod+2,f
  2792     06FE                     u1952:
  2793     06FE  085B               	movf	??___flmul+3,w
  2794     06FF  1103               	clrz
  2795     0700  1803               	skipnc
  2796     0701  3E01               	addlw	1
  2797     0702  1903               	skipnz
  2798     0703  2F05               	goto	u1953
  2799     0704  07E7               	addwf	___flmul@prod+3,f
  2800     0705                     u1953:
  2801     0705                     l1519:
  2802     0705  3008               	movlw	8
  2803     0706  00D8               	movwf	??___flmul
  2804     0707                     u1965:
  2805     0707  1003               	clrc
  2806     0708  0DDE               	rlf	___flmul@grs,f
  2807     0709  0DDF               	rlf	___flmul@grs+1,f
  2808     070A  0DE0               	rlf	___flmul@grs+2,f
  2809     070B  0DE1               	rlf	___flmul@grs+3,f
  2810     070C  0BD8               	decfsz	??___flmul,f
  2811     070D  2F07               	goto	u1965
  2812     070E                     l1521:
  2813     070E  0863               	movf	___flmul@bexp,w
  2814     070F  0762               	addwf	___flmul@aexp,w
  2815     0710  00D8               	movwf	??___flmul
  2816     0711  01D9               	clrf	??___flmul+1
  2817     0712  0DD9               	rlf	??___flmul+1,f
  2818     0713  0858               	movf	??___flmul,w
  2819     0714  3E82               	addlw	130
  2820     0715  00E8               	movwf	___flmul@temp
  2821     0716  0859               	movf	??___flmul+1,w
  2822     0717  1803               	skipnc
  2823     0718  3E01               	addlw	1
  2824     0719  3EFF               	addlw	255
  2825     071A  00E9               	movwf	___flmul@temp+1
  2826     071B  2F39               	goto	l1533
  2827     071C                     l1523:
  2828     071C  3001               	movlw	1
  2829     071D  00D8               	movwf	??___flmul
  2830     071E                     u1975:
  2831     071E  1003               	clrc
  2832     071F  0DE4               	rlf	___flmul@prod,f
  2833     0720  0DE5               	rlf	___flmul@prod+1,f
  2834     0721  0DE6               	rlf	___flmul@prod+2,f
  2835     0722  0DE7               	rlf	___flmul@prod+3,f
  2836     0723  0BD8               	decfsz	??___flmul,f
  2837     0724  2F1E               	goto	u1975
  2838     0725                     l1525:
  2839     0725  1FE1               	btfss	___flmul@grs+3,7
  2840     0726  2F28               	goto	u1981
  2841     0727  2F29               	goto	u1980
  2842     0728                     u1981:
  2843     0728  2F2A               	goto	l1529
  2844     0729                     u1980:
  2845     0729                     l1527:
  2846     0729  1464               	bsf	___flmul@prod,0
  2847     072A                     l1529:
  2848     072A  3001               	movlw	1
  2849     072B  00D8               	movwf	??___flmul
  2850     072C                     u1995:
  2851     072C  1003               	clrc
  2852     072D  0DDE               	rlf	___flmul@grs,f
  2853     072E  0DDF               	rlf	___flmul@grs+1,f
  2854     072F  0DE0               	rlf	___flmul@grs+2,f
  2855     0730  0DE1               	rlf	___flmul@grs+3,f
  2856     0731  0BD8               	decfsz	??___flmul,f
  2857     0732  2F2C               	goto	u1995
  2858     0733                     l1531:
  2859     0733  30FF               	movlw	255
  2860     0734  07E8               	addwf	___flmul@temp,f
  2861     0735  1803               	skipnc
  2862     0736  0AE9               	incf	___flmul@temp+1,f
  2863     0737  30FF               	movlw	255
  2864     0738  07E9               	addwf	___flmul@temp+1,f
  2865     0739                     l1533:
  2866     0739  1FE6               	btfss	___flmul@prod+2,7
  2867     073A  2F3C               	goto	u2001
  2868     073B  2F3D               	goto	u2000
  2869     073C                     u2001:
  2870     073C  2F1C               	goto	l1523
  2871     073D                     u2000:
  2872     073D                     l1535:
  2873     073D  01E2               	clrf	___flmul@aexp
  2874     073E                     l1537:
  2875     073E  1FE1               	btfss	___flmul@grs+3,7
  2876     073F  2F41               	goto	u2011
  2877     0740  2F42               	goto	u2010
  2878     0741                     u2011:
  2879     0741  2F5E               	goto	l1545
  2880     0742                     u2010:
  2881     0742                     l1539:
  2882     0742  30FF               	movlw	255
  2883     0743  055E               	andwf	___flmul@grs,w
  2884     0744  00D8               	movwf	??___flmul
  2885     0745  30FF               	movlw	255
  2886     0746  055F               	andwf	___flmul@grs+1,w
  2887     0747  00D9               	movwf	??___flmul+1
  2888     0748  30FF               	movlw	255
  2889     0749  0560               	andwf	___flmul@grs+2,w
  2890     074A  00DA               	movwf	??___flmul+2
  2891     074B  307F               	movlw	127
  2892     074C  0561               	andwf	___flmul@grs+3,w
  2893     074D  00DB               	movwf	??___flmul+3
  2894     074E  085B               	movf	??___flmul+3,w
  2895     074F  045A               	iorwf	??___flmul+2,w
  2896     0750  0459               	iorwf	??___flmul+1,w
  2897     0751  0458               	iorwf	??___flmul,w
  2898     0752  1903               	skipnz
  2899     0753  2F55               	goto	u2021
  2900     0754  2F56               	goto	u2020
  2901     0755                     u2021:
  2902     0755  2F59               	goto	l594
  2903     0756                     u2020:
  2904     0756                     l1541:
  2905     0756  01E2               	clrf	___flmul@aexp
  2906     0757  0AE2               	incf	___flmul@aexp,f
  2907     0758  2F5E               	goto	l1545
  2908     0759                     l594:
  2909     0759  1C64               	btfss	___flmul@prod,0
  2910     075A  2F5C               	goto	u2031
  2911     075B  2F5D               	goto	u2030
  2912     075C                     u2031:
  2913     075C  2F5E               	goto	l1545
  2914     075D                     u2030:
  2915     075D  2F56               	goto	l1541
  2916     075E                     l1545:
  2917     075E  0862               	movf	___flmul@aexp,w
  2918     075F  1903               	btfsc	3,2
  2919     0760  2F62               	goto	u2041
  2920     0761  2F63               	goto	u2040
  2921     0762                     u2041:
  2922     0762  2F94               	goto	l1555
  2923     0763                     u2040:
  2924     0763                     l1547:
  2925     0763  3001               	movlw	1
  2926     0764  07E4               	addwf	___flmul@prod,f
  2927     0765  3000               	movlw	0
  2928     0766  1803               	skipnc
  2929     0767  3001               	movlw	1
  2930     0768  07E5               	addwf	___flmul@prod+1,f
  2931     0769  3000               	movlw	0
  2932     076A  1803               	skipnc
  2933     076B  3001               	movlw	1
  2934     076C  07E6               	addwf	___flmul@prod+2,f
  2935     076D  3000               	movlw	0
  2936     076E  1803               	skipnc
  2937     076F  3001               	movlw	1
  2938     0770  07E7               	addwf	___flmul@prod+3,f
  2939     0771                     l1549:
  2940     0771  1C67               	btfss	___flmul@prod+3,0
  2941     0772  2F74               	goto	u2051
  2942     0773  2F75               	goto	u2050
  2943     0774                     u2051:
  2944     0774  2F94               	goto	l1555
  2945     0775                     u2050:
  2946     0775                     l1551:
  2947     0775  0864               	movf	___flmul@prod,w
  2948     0776  00D8               	movwf	??___flmul
  2949     0777  0865               	movf	___flmul@prod+1,w
  2950     0778  00D9               	movwf	??___flmul+1
  2951     0779  0866               	movf	___flmul@prod+2,w
  2952     077A  00DA               	movwf	??___flmul+2
  2953     077B  0867               	movf	___flmul@prod+3,w
  2954     077C  00DB               	movwf	??___flmul+3
  2955     077D  3001               	movlw	1
  2956     077E  00DC               	movwf	??___flmul+4
  2957     077F                     u2065:
  2958     077F  0D5B               	rlf	??___flmul+3,w
  2959     0780  0CDB               	rrf	??___flmul+3,f
  2960     0781  0CDA               	rrf	??___flmul+2,f
  2961     0782  0CD9               	rrf	??___flmul+1,f
  2962     0783  0CD8               	rrf	??___flmul,f
  2963     0784                     u2060:
  2964     0784  0BDC               	decfsz	??___flmul+4,f
  2965     0785  2F7F               	goto	u2065
  2966     0786  085B               	movf	??___flmul+3,w
  2967     0787  00E7               	movwf	___flmul@prod+3
  2968     0788  085A               	movf	??___flmul+2,w
  2969     0789  00E6               	movwf	___flmul@prod+2
  2970     078A  0859               	movf	??___flmul+1,w
  2971     078B  00E5               	movwf	___flmul@prod+1
  2972     078C  0858               	movf	??___flmul,w
  2973     078D  00E4               	movwf	___flmul@prod
  2974     078E                     l1553:
  2975     078E  3001               	movlw	1
  2976     078F  07E8               	addwf	___flmul@temp,f
  2977     0790  1803               	skipnc
  2978     0791  0AE9               	incf	___flmul@temp+1,f
  2979     0792  3000               	movlw	0
  2980     0793  07E9               	addwf	___flmul@temp+1,f
  2981     0794                     l1555:
  2982     0794  0869               	movf	___flmul@temp+1,w
  2983     0795  3A80               	xorlw	128
  2984     0796  00FF               	movwf	btemp+1
  2985     0797  3080               	movlw	128
  2986     0798  027F               	subwf	btemp+1,w
  2987     0799  1D03               	skipz
  2988     079A  2F9D               	goto	u2075
  2989     079B  30FF               	movlw	255
  2990     079C  0268               	subwf	___flmul@temp,w
  2991     079D                     u2075:
  2992     079D  1C03               	skipc
  2993     079E  2FA0               	goto	u2071
  2994     079F  2FA1               	goto	u2070
  2995     07A0                     u2071:
  2996     07A0  2FAC               	goto	l1559
  2997     07A1                     u2070:
  2998     07A1                     l1557:
  2999     07A1  307F               	movlw	127
  3000     07A2  1283               	bcf	3,5	;RP0=0, select bank0
  3001     07A3  1303               	bcf	3,6	;RP1=0, select bank0
  3002     07A4  00E7               	movwf	___flmul@prod+3
  3003     07A5  3080               	movlw	128
  3004     07A6  00E6               	movwf	___flmul@prod+2
  3005     07A7  3000               	movlw	0
  3006     07A8  00E5               	movwf	___flmul@prod+1
  3007     07A9  3000               	movlw	0
  3008     07AA  00E4               	movwf	___flmul@prod
  3009     07AB  2FDD               	goto	l600
  3010     07AC                     l1559:
  3011     07AC  1283               	bcf	3,5	;RP0=0, select bank0
  3012     07AD  1303               	bcf	3,6	;RP1=0, select bank0
  3013     07AE  0869               	movf	___flmul@temp+1,w
  3014     07AF  3A80               	xorlw	128
  3015     07B0  00FF               	movwf	btemp+1
  3016     07B1  3080               	movlw	128
  3017     07B2  027F               	subwf	btemp+1,w
  3018     07B3  1D03               	skipz
  3019     07B4  2FB7               	goto	u2085
  3020     07B5  3001               	movlw	1
  3021     07B6  0268               	subwf	___flmul@temp,w
  3022     07B7                     u2085:
  3023     07B7  1803               	skipnc
  3024     07B8  2FBA               	goto	u2081
  3025     07B9  2FBB               	goto	u2080
  3026     07BA                     u2081:
  3027     07BA  2FC7               	goto	l1565
  3028     07BB                     u2080:
  3029     07BB                     l1561:
  3030     07BB  3000               	movlw	0
  3031     07BC  1283               	bcf	3,5	;RP0=0, select bank0
  3032     07BD  1303               	bcf	3,6	;RP1=0, select bank0
  3033     07BE  00E7               	movwf	___flmul@prod+3
  3034     07BF  3000               	movlw	0
  3035     07C0  00E6               	movwf	___flmul@prod+2
  3036     07C1  3000               	movlw	0
  3037     07C2  00E5               	movwf	___flmul@prod+1
  3038     07C3  3000               	movlw	0
  3039     07C4  00E4               	movwf	___flmul@prod
  3040     07C5                     l1563:
  3041     07C5  01DD               	clrf	___flmul@sign
  3042     07C6  2FDD               	goto	l600
  3043     07C7                     l1565:
  3044     07C7  1283               	bcf	3,5	;RP0=0, select bank0
  3045     07C8  1303               	bcf	3,6	;RP1=0, select bank0
  3046     07C9  0868               	movf	___flmul@temp,w
  3047     07CA  00E3               	movwf	___flmul@bexp
  3048     07CB  30FF               	movlw	255
  3049     07CC  05E4               	andwf	___flmul@prod,f
  3050     07CD  30FF               	movlw	255
  3051     07CE  05E5               	andwf	___flmul@prod+1,f
  3052     07CF  307F               	movlw	127
  3053     07D0  05E6               	andwf	___flmul@prod+2,f
  3054     07D1  3000               	movlw	0
  3055     07D2  05E7               	andwf	___flmul@prod+3,f
  3056     07D3                     l1567:
  3057     07D3  1C63               	btfss	___flmul@bexp,0
  3058     07D4  2FD6               	goto	u2091
  3059     07D5  2FD7               	goto	u2090
  3060     07D6                     u2091:
  3061     07D6  2FD8               	goto	l1571
  3062     07D7                     u2090:
  3063     07D7                     l1569:
  3064     07D7  17E6               	bsf	___flmul@prod+2,7
  3065     07D8                     l1571:
  3066     07D8  0863               	movf	___flmul@bexp,w
  3067     07D9  00D8               	movwf	??___flmul
  3068     07DA  1003               	clrc
  3069     07DB  0C58               	rrf	??___flmul,w
  3070     07DC  00E7               	movwf	___flmul@prod+3
  3071     07DD                     l600:
  3072     07DD  085D               	movf	___flmul@sign,w
  3073     07DE  00D8               	movwf	??___flmul
  3074     07DF  0858               	movf	??___flmul,w
  3075     07E0  04E7               	iorwf	___flmul@prod+3,f
  3076     07E1                     l1573:
  3077     07E1  0867               	movf	___flmul@prod+3,w
  3078     07E2  00D3               	movwf	?___flmul+3
  3079     07E3  0866               	movf	___flmul@prod+2,w
  3080     07E4  00D2               	movwf	?___flmul+2
  3081     07E5  0865               	movf	___flmul@prod+1,w
  3082     07E6  00D1               	movwf	?___flmul+1
  3083     07E7  0864               	movf	___flmul@prod,w
  3084     07E8  00D0               	movwf	?___flmul
  3085     07E9                     l588:
  3086     07E9  0008               	return
  3087     07EA                     __end_of___flmul:
  3088                           
  3089                           	psect	text12
  3090     0EA2                     __ptext12:	
  3091 ;; *************** function __Umul8_16 *****************
  3092 ;; Defined at:
  3093 ;;		line 4 in file "C:\Program Files\Microchip\xc8\v2.40\pic\sources\c90\common\Umul8_16.c"
  3094 ;; Parameters:    Size  Location     Type
  3095 ;;  multiplier      1    wreg     unsigned char 
  3096 ;;  multiplicand    1    0[COMMON] unsigned char 
  3097 ;; Auto vars:     Size  Location     Type
  3098 ;;  multiplier      1    8[COMMON] unsigned char 
  3099 ;;  word_mpld       2    6[COMMON] unsigned int 
  3100 ;;  product         2    4[COMMON] unsigned int 
  3101 ;; Return value:  Size  Location     Type
  3102 ;;                  2    0[COMMON] unsigned int 
  3103 ;; Registers used:
  3104 ;;		wreg, status,2, status,0
  3105 ;; Tracked objects:
  3106 ;;		On entry : 0/0
  3107 ;;		On exit  : 0/0
  3108 ;;		Unchanged: 0/0
  3109 ;; Data sizes:     COMMON   BANK0   BANK1   BANK3   BANK2
  3110 ;;      Params:         2       0       0       0       0
  3111 ;;      Locals:         5       0       0       0       0
  3112 ;;      Temps:          2       0       0       0       0
  3113 ;;      Totals:         9       0       0       0       0
  3114 ;;Total ram usage:        9 bytes
  3115 ;; Hardware stack levels used: 1
  3116 ;; This function calls:
  3117 ;;		Nothing
  3118 ;; This function is called by:
  3119 ;;		___flmul
  3120 ;; This function uses a non-reentrant model
  3121 ;;
  3122                           
  3123     0EA2                     __Umul8_16:	
  3124                           ;psect for function __Umul8_16
  3125                           
  3126                           
  3127                           ;incstack = 0
  3128                           ; Regs used in __Umul8_16: [wreg+status,2+status,0]
  3129                           ;__Umul8_16@multiplier stored from wreg
  3130     0EA2  00F8               	movwf	__Umul8_16@multiplier
  3131     0EA3                     l1241:
  3132     0EA3  01F4               	clrf	__Umul8_16@product
  3133     0EA4  01F5               	clrf	__Umul8_16@product+1
  3134     0EA5                     l1243:
  3135     0EA5  0870               	movf	__Umul8_16@multiplicand,w
  3136     0EA6  00F2               	movwf	??__Umul8_16
  3137     0EA7  01F3               	clrf	??__Umul8_16+1
  3138     0EA8  0872               	movf	??__Umul8_16,w
  3139     0EA9  00F6               	movwf	__Umul8_16@word_mpld
  3140     0EAA  0873               	movf	??__Umul8_16+1,w
  3141     0EAB  00F7               	movwf	__Umul8_16@word_mpld+1
  3142     0EAC                     l1245:
  3143     0EAC  1C78               	btfss	__Umul8_16@multiplier,0
  3144     0EAD  2EAF               	goto	u1301
  3145     0EAE  2EB0               	goto	u1300
  3146     0EAF                     u1301:
  3147     0EAF  2EB6               	goto	l607
  3148     0EB0                     u1300:
  3149     0EB0                     l1247:
  3150     0EB0  0876               	movf	__Umul8_16@word_mpld,w
  3151     0EB1  07F4               	addwf	__Umul8_16@product,f
  3152     0EB2  1803               	skipnc
  3153     0EB3  0AF5               	incf	__Umul8_16@product+1,f
  3154     0EB4  0877               	movf	__Umul8_16@word_mpld+1,w
  3155     0EB5  07F5               	addwf	__Umul8_16@product+1,f
  3156     0EB6                     l607:
  3157     0EB6  3001               	movlw	1
  3158     0EB7                     u1315:
  3159     0EB7  1003               	clrc
  3160     0EB8  0DF6               	rlf	__Umul8_16@word_mpld,f
  3161     0EB9  0DF7               	rlf	__Umul8_16@word_mpld+1,f
  3162     0EBA  3EFF               	addlw	-1
  3163     0EBB  1D03               	skipz
  3164     0EBC  2EB7               	goto	u1315
  3165     0EBD  1003               	clrc
  3166     0EBE  0CF8               	rrf	__Umul8_16@multiplier,f
  3167     0EBF                     l1249:
  3168     0EBF  0878               	movf	__Umul8_16@multiplier,w
  3169     0EC0  1D03               	btfss	3,2
  3170     0EC1  2EC3               	goto	u1321
  3171     0EC2  2EC4               	goto	u1320
  3172     0EC3                     u1321:
  3173     0EC3  2EAC               	goto	l1245
  3174     0EC4                     u1320:
  3175     0EC4                     l1251:
  3176     0EC4  0875               	movf	__Umul8_16@product+1,w
  3177     0EC5  00F1               	movwf	?__Umul8_16+1
  3178     0EC6  0874               	movf	__Umul8_16@product,w
  3179     0EC7  00F0               	movwf	?__Umul8_16
  3180     0EC8                     l609:
  3181     0EC8  0008               	return
  3182     0EC9                     __end_of__Umul8_16:
  3183                           
  3184                           	psect	text13
  3185     02D2                     __ptext13:	
  3186 ;; *************** function ___fldiv *****************
  3187 ;; Defined at:
  3188 ;;		line 8 in file "C:\Program Files\Microchip\xc8\v2.40\pic\sources\c90\common\sprcdiv.c"
  3189 ;; Parameters:    Size  Location     Type
  3190 ;;  a               4   22[BANK0 ] unsigned int 
  3191 ;;  b               4   26[BANK0 ] unsigned int 
  3192 ;; Auto vars:     Size  Location     Type
  3193 ;;  grs             4   42[BANK0 ] unsigned long 
  3194 ;;  rem             4   35[BANK0 ] unsigned long 
  3195 ;;  new_exp         2   40[BANK0 ] int 
  3196 ;;  aexp            1   47[BANK0 ] unsigned char 
  3197 ;;  bexp            1   46[BANK0 ] unsigned char 
  3198 ;;  sign            1   39[BANK0 ] unsigned char 
  3199 ;; Return value:  Size  Location     Type
  3200 ;;                  4   22[BANK0 ] unsigned char 
  3201 ;; Registers used:
  3202 ;;		wreg, status,2, status,0, btemp+1
  3203 ;; Tracked objects:
  3204 ;;		On entry : 0/0
  3205 ;;		On exit  : 0/0
  3206 ;;		Unchanged: 0/0
  3207 ;; Data sizes:     COMMON   BANK0   BANK1   BANK3   BANK2
  3208 ;;      Params:         0       8       0       0       0
  3209 ;;      Locals:         0      13       0       0       0
  3210 ;;      Temps:          0       5       0       0       0
  3211 ;;      Totals:         0      26       0       0       0
  3212 ;;Total ram usage:       26 bytes
  3213 ;; Hardware stack levels used: 1
  3214 ;; This function calls:
  3215 ;;		Nothing
  3216 ;; This function is called by:
  3217 ;;		_PWM1_Duty
  3218 ;;		_PWM2_Duty
  3219 ;; This function uses a non-reentrant model
  3220 ;;
  3221                           
  3222     02D2                     ___fldiv:	
  3223                           ;psect for function ___fldiv
  3224                           
  3225     02D2                     l1295:	
  3226                           ;incstack = 0
  3227                           ; Regs used in ___fldiv: [wreg+status,2+status,0+btemp+1]
  3228                           
  3229     02D2  1283               	bcf	3,5	;RP0=0, select bank0
  3230     02D3  1303               	bcf	3,6	;RP1=0, select bank0
  3231     02D4  083D               	movf	___fldiv@b+3,w
  3232     02D5  3980               	andlw	128
  3233     02D6  00C7               	movwf	___fldiv@sign
  3234     02D7                     l1297:
  3235     02D7  083D               	movf	___fldiv@b+3,w
  3236     02D8  00BE               	movwf	??___fldiv
  3237     02D9  073E               	addwf	??___fldiv,w
  3238     02DA  00CE               	movwf	___fldiv@bexp
  3239     02DB                     l1299:
  3240     02DB  1FBC               	btfss	___fldiv@b+2,7
  3241     02DC  2ADE               	goto	u1441
  3242     02DD  2ADF               	goto	u1440
  3243     02DE                     u1441:
  3244     02DE  2AE0               	goto	l1303
  3245     02DF                     u1440:
  3246     02DF                     l1301:
  3247     02DF  144E               	bsf	___fldiv@bexp,0
  3248     02E0                     l1303:
  3249     02E0  084E               	movf	___fldiv@bexp,w
  3250     02E1  1903               	btfsc	3,2
  3251     02E2  2AE4               	goto	u1451
  3252     02E3  2AE5               	goto	u1450
  3253     02E4                     u1451:
  3254     02E4  2AF5               	goto	l1313
  3255     02E5                     u1450:
  3256     02E5                     l1305:
  3257     02E5  0A4E               	incf	___fldiv@bexp,w
  3258     02E6  1D03               	btfss	3,2
  3259     02E7  2AE9               	goto	u1461
  3260     02E8  2AEA               	goto	u1460
  3261     02E9                     u1461:
  3262     02E9  2AF2               	goto	l1309
  3263     02EA                     u1460:
  3264     02EA                     l1307:
  3265     02EA  3000               	movlw	0
  3266     02EB  00BD               	movwf	___fldiv@b+3
  3267     02EC  3000               	movlw	0
  3268     02ED  00BC               	movwf	___fldiv@b+2
  3269     02EE  3000               	movlw	0
  3270     02EF  00BB               	movwf	___fldiv@b+1
  3271     02F0  3000               	movlw	0
  3272     02F1  00BA               	movwf	___fldiv@b
  3273     02F2                     l1309:
  3274     02F2  17BC               	bsf	___fldiv@b+2,7
  3275     02F3                     l1311:
  3276     02F3  01BD               	clrf	___fldiv@b+3
  3277     02F4  2AFD               	goto	l1315
  3278     02F5                     l1313:
  3279     02F5  3000               	movlw	0
  3280     02F6  00BD               	movwf	___fldiv@b+3
  3281     02F7  3000               	movlw	0
  3282     02F8  00BC               	movwf	___fldiv@b+2
  3283     02F9  3000               	movlw	0
  3284     02FA  00BB               	movwf	___fldiv@b+1
  3285     02FB  3000               	movlw	0
  3286     02FC  00BA               	movwf	___fldiv@b
  3287     02FD                     l1315:
  3288     02FD  0839               	movf	___fldiv@a+3,w
  3289     02FE  3980               	andlw	128
  3290     02FF  00BE               	movwf	??___fldiv
  3291     0300  083E               	movf	??___fldiv,w
  3292     0301  06C7               	xorwf	___fldiv@sign,f
  3293     0302                     l1317:
  3294     0302  0839               	movf	___fldiv@a+3,w
  3295     0303  00BE               	movwf	??___fldiv
  3296     0304  073E               	addwf	??___fldiv,w
  3297     0305  00CF               	movwf	___fldiv@aexp
  3298     0306                     l1319:
  3299     0306  1FB8               	btfss	___fldiv@a+2,7
  3300     0307  2B09               	goto	u1471
  3301     0308  2B0A               	goto	u1470
  3302     0309                     u1471:
  3303     0309  2B0B               	goto	l1323
  3304     030A                     u1470:
  3305     030A                     l1321:
  3306     030A  144F               	bsf	___fldiv@aexp,0
  3307     030B                     l1323:
  3308     030B  084F               	movf	___fldiv@aexp,w
  3309     030C  1903               	btfsc	3,2
  3310     030D  2B0F               	goto	u1481
  3311     030E  2B10               	goto	u1480
  3312     030F                     u1481:
  3313     030F  2B20               	goto	l1333
  3314     0310                     u1480:
  3315     0310                     l1325:
  3316     0310  0A4F               	incf	___fldiv@aexp,w
  3317     0311  1D03               	btfss	3,2
  3318     0312  2B14               	goto	u1491
  3319     0313  2B15               	goto	u1490
  3320     0314                     u1491:
  3321     0314  2B1D               	goto	l1329
  3322     0315                     u1490:
  3323     0315                     l1327:
  3324     0315  3000               	movlw	0
  3325     0316  00B9               	movwf	___fldiv@a+3
  3326     0317  3000               	movlw	0
  3327     0318  00B8               	movwf	___fldiv@a+2
  3328     0319  3000               	movlw	0
  3329     031A  00B7               	movwf	___fldiv@a+1
  3330     031B  3000               	movlw	0
  3331     031C  00B6               	movwf	___fldiv@a
  3332     031D                     l1329:
  3333     031D  17B8               	bsf	___fldiv@a+2,7
  3334     031E                     l1331:
  3335     031E  01B9               	clrf	___fldiv@a+3
  3336     031F  2B28               	goto	l548
  3337     0320                     l1333:
  3338     0320  3000               	movlw	0
  3339     0321  00B9               	movwf	___fldiv@a+3
  3340     0322  3000               	movlw	0
  3341     0323  00B8               	movwf	___fldiv@a+2
  3342     0324  3000               	movlw	0
  3343     0325  00B7               	movwf	___fldiv@a+1
  3344     0326  3000               	movlw	0
  3345     0327  00B6               	movwf	___fldiv@a
  3346     0328                     l548:
  3347     0328  0839               	movf	___fldiv@a+3,w
  3348     0329  0438               	iorwf	___fldiv@a+2,w
  3349     032A  0437               	iorwf	___fldiv@a+1,w
  3350     032B  0436               	iorwf	___fldiv@a,w
  3351     032C  1D03               	skipz
  3352     032D  2B2F               	goto	u1501
  3353     032E  2B30               	goto	u1500
  3354     032F                     u1501:
  3355     032F  2B49               	goto	l1343
  3356     0330                     u1500:
  3357     0330                     l1335:
  3358     0330  3000               	movlw	0
  3359     0331  00BD               	movwf	___fldiv@b+3
  3360     0332  3000               	movlw	0
  3361     0333  00BC               	movwf	___fldiv@b+2
  3362     0334  3000               	movlw	0
  3363     0335  00BB               	movwf	___fldiv@b+1
  3364     0336  3000               	movlw	0
  3365     0337  00BA               	movwf	___fldiv@b
  3366     0338  3080               	movlw	128
  3367     0339  04BC               	iorwf	___fldiv@b+2,f
  3368     033A  307F               	movlw	127
  3369     033B  04BD               	iorwf	___fldiv@b+3,f
  3370     033C                     l1337:
  3371     033C  0847               	movf	___fldiv@sign,w
  3372     033D  00BE               	movwf	??___fldiv
  3373     033E  083E               	movf	??___fldiv,w
  3374     033F  04BD               	iorwf	___fldiv@b+3,f
  3375     0340                     l1339:
  3376     0340  083D               	movf	___fldiv@b+3,w
  3377     0341  00B9               	movwf	?___fldiv+3
  3378     0342  083C               	movf	___fldiv@b+2,w
  3379     0343  00B8               	movwf	?___fldiv+2
  3380     0344  083B               	movf	___fldiv@b+1,w
  3381     0345  00B7               	movwf	?___fldiv+1
  3382     0346  083A               	movf	___fldiv@b,w
  3383     0347  00B6               	movwf	?___fldiv
  3384     0348  2CA4               	goto	l550
  3385     0349                     l1343:
  3386     0349  084E               	movf	___fldiv@bexp,w
  3387     034A  1D03               	btfss	3,2
  3388     034B  2B4D               	goto	u1511
  3389     034C  2B4E               	goto	u1510
  3390     034D                     u1511:
  3391     034D  2B57               	goto	l1349
  3392     034E                     u1510:
  3393     034E                     l1345:
  3394     034E  3000               	movlw	0
  3395     034F  00B9               	movwf	?___fldiv+3
  3396     0350  3000               	movlw	0
  3397     0351  00B8               	movwf	?___fldiv+2
  3398     0352  3000               	movlw	0
  3399     0353  00B7               	movwf	?___fldiv+1
  3400     0354  3000               	movlw	0
  3401     0355  00B6               	movwf	?___fldiv
  3402     0356  2CA4               	goto	l550
  3403     0357                     l1349:
  3404     0357  084E               	movf	___fldiv@bexp,w
  3405     0358  00BE               	movwf	??___fldiv
  3406     0359  01BF               	clrf	??___fldiv+1
  3407     035A  083F               	movf	??___fldiv+1,w
  3408     035B  00C1               	movwf	??___fldiv+3
  3409     035C  084F               	movf	___fldiv@aexp,w
  3410     035D  023E               	subwf	??___fldiv,w
  3411     035E  00C0               	movwf	??___fldiv+2
  3412     035F  1C03               	skipc
  3413     0360  03C1               	decf	??___fldiv+3,f
  3414     0361  0840               	movf	??___fldiv+2,w
  3415     0362  3E7F               	addlw	127
  3416     0363  00C8               	movwf	___fldiv@new_exp
  3417     0364  0841               	movf	??___fldiv+3,w
  3418     0365  1803               	skipnc
  3419     0366  3E01               	addlw	1
  3420     0367  3E00               	addlw	0
  3421     0368  00C9               	movwf	___fldiv@new_exp+1
  3422     0369                     l1351:
  3423     0369  083D               	movf	___fldiv@b+3,w
  3424     036A  00C6               	movwf	___fldiv@rem+3
  3425     036B  083C               	movf	___fldiv@b+2,w
  3426     036C  00C5               	movwf	___fldiv@rem+2
  3427     036D  083B               	movf	___fldiv@b+1,w
  3428     036E  00C4               	movwf	___fldiv@rem+1
  3429     036F  083A               	movf	___fldiv@b,w
  3430     0370  00C3               	movwf	___fldiv@rem
  3431     0371                     l1353:
  3432     0371  3000               	movlw	0
  3433     0372  00BD               	movwf	___fldiv@b+3
  3434     0373  3000               	movlw	0
  3435     0374  00BC               	movwf	___fldiv@b+2
  3436     0375  3000               	movlw	0
  3437     0376  00BB               	movwf	___fldiv@b+1
  3438     0377  3000               	movlw	0
  3439     0378  00BA               	movwf	___fldiv@b
  3440     0379                     l1355:
  3441     0379  3000               	movlw	0
  3442     037A  00CD               	movwf	___fldiv@grs+3
  3443     037B  3000               	movlw	0
  3444     037C  00CC               	movwf	___fldiv@grs+2
  3445     037D  3000               	movlw	0
  3446     037E  00CB               	movwf	___fldiv@grs+1
  3447     037F  3000               	movlw	0
  3448     0380  00CA               	movwf	___fldiv@grs
  3449     0381                     l1357:
  3450     0381  01CF               	clrf	___fldiv@aexp
  3451     0382  2BCD               	goto	l1377
  3452     0383                     l1359:
  3453     0383  084F               	movf	___fldiv@aexp,w
  3454     0384  1903               	btfsc	3,2
  3455     0385  2B87               	goto	u1521
  3456     0386  2B88               	goto	u1520
  3457     0387                     u1521:
  3458     0387  2BA8               	goto	l1369
  3459     0388                     u1520:
  3460     0388                     l1361:
  3461     0388  3001               	movlw	1
  3462     0389  00BE               	movwf	??___fldiv
  3463     038A                     u1535:
  3464     038A  1003               	clrc
  3465     038B  0DC3               	rlf	___fldiv@rem,f
  3466     038C  0DC4               	rlf	___fldiv@rem+1,f
  3467     038D  0DC5               	rlf	___fldiv@rem+2,f
  3468     038E  0DC6               	rlf	___fldiv@rem+3,f
  3469     038F  0BBE               	decfsz	??___fldiv,f
  3470     0390  2B8A               	goto	u1535
  3471     0391  3001               	movlw	1
  3472     0392  00BE               	movwf	??___fldiv
  3473     0393                     u1545:
  3474     0393  1003               	clrc
  3475     0394  0DBA               	rlf	___fldiv@b,f
  3476     0395  0DBB               	rlf	___fldiv@b+1,f
  3477     0396  0DBC               	rlf	___fldiv@b+2,f
  3478     0397  0DBD               	rlf	___fldiv@b+3,f
  3479     0398  0BBE               	decfsz	??___fldiv,f
  3480     0399  2B93               	goto	u1545
  3481     039A                     l1363:
  3482     039A  1FCD               	btfss	___fldiv@grs+3,7
  3483     039B  2B9D               	goto	u1551
  3484     039C  2B9E               	goto	u1550
  3485     039D                     u1551:
  3486     039D  2B9F               	goto	l1367
  3487     039E                     u1550:
  3488     039E                     l1365:
  3489     039E  143A               	bsf	___fldiv@b,0
  3490     039F                     l1367:
  3491     039F  3001               	movlw	1
  3492     03A0  00BE               	movwf	??___fldiv
  3493     03A1                     u1565:
  3494     03A1  1003               	clrc
  3495     03A2  0DCA               	rlf	___fldiv@grs,f
  3496     03A3  0DCB               	rlf	___fldiv@grs+1,f
  3497     03A4  0DCC               	rlf	___fldiv@grs+2,f
  3498     03A5  0DCD               	rlf	___fldiv@grs+3,f
  3499     03A6  0BBE               	decfsz	??___fldiv,f
  3500     03A7  2BA1               	goto	u1565
  3501     03A8                     l1369:
  3502     03A8  0839               	movf	___fldiv@a+3,w
  3503     03A9  0246               	subwf	___fldiv@rem+3,w
  3504     03AA  1D03               	skipz
  3505     03AB  2BB6               	goto	u1575
  3506     03AC  0838               	movf	___fldiv@a+2,w
  3507     03AD  0245               	subwf	___fldiv@rem+2,w
  3508     03AE  1D03               	skipz
  3509     03AF  2BB6               	goto	u1575
  3510     03B0  0837               	movf	___fldiv@a+1,w
  3511     03B1  0244               	subwf	___fldiv@rem+1,w
  3512     03B2  1D03               	skipz
  3513     03B3  2BB6               	goto	u1575
  3514     03B4  0836               	movf	___fldiv@a,w
  3515     03B5  0243               	subwf	___fldiv@rem,w
  3516     03B6                     u1575:
  3517     03B6  1C03               	skipc
  3518     03B7  2BB9               	goto	u1571
  3519     03B8  2BBA               	goto	u1570
  3520     03B9                     u1571:
  3521     03B9  2BC9               	goto	l1375
  3522     03BA                     u1570:
  3523     03BA                     l1371:
  3524     03BA  174D               	bsf	___fldiv@grs+3,6
  3525     03BB                     l1373:
  3526     03BB  0836               	movf	___fldiv@a,w
  3527     03BC  02C3               	subwf	___fldiv@rem,f
  3528     03BD  0837               	movf	___fldiv@a+1,w
  3529     03BE  1C03               	skipc
  3530     03BF  0F37               	incfsz	___fldiv@a+1,w
  3531     03C0  02C4               	subwf	___fldiv@rem+1,f
  3532     03C1  0838               	movf	___fldiv@a+2,w
  3533     03C2  1C03               	skipc
  3534     03C3  0F38               	incfsz	___fldiv@a+2,w
  3535     03C4  02C5               	subwf	___fldiv@rem+2,f
  3536     03C5  0839               	movf	___fldiv@a+3,w
  3537     03C6  1C03               	skipc
  3538     03C7  0F39               	incfsz	___fldiv@a+3,w
  3539     03C8  02C6               	subwf	___fldiv@rem+3,f
  3540     03C9                     l1375:
  3541     03C9  3001               	movlw	1
  3542     03CA  00BE               	movwf	??___fldiv
  3543     03CB  083E               	movf	??___fldiv,w
  3544     03CC  07CF               	addwf	___fldiv@aexp,f
  3545     03CD                     l1377:
  3546     03CD  301A               	movlw	26
  3547     03CE  024F               	subwf	___fldiv@aexp,w
  3548     03CF  1C03               	skipc
  3549     03D0  2BD2               	goto	u1581
  3550     03D1  2BD3               	goto	u1580
  3551     03D2                     u1581:
  3552     03D2  2B83               	goto	l1359
  3553     03D3                     u1580:
  3554     03D3                     l1379:
  3555     03D3  0846               	movf	___fldiv@rem+3,w
  3556     03D4  0445               	iorwf	___fldiv@rem+2,w
  3557     03D5  0444               	iorwf	___fldiv@rem+1,w
  3558     03D6  0443               	iorwf	___fldiv@rem,w
  3559     03D7  1903               	skipnz
  3560     03D8  2BDA               	goto	u1591
  3561     03D9  2BDB               	goto	u1590
  3562     03DA                     u1591:
  3563     03DA  2BFA               	goto	l1393
  3564     03DB                     u1590:
  3565     03DB                     l1381:
  3566     03DB  144A               	bsf	___fldiv@grs,0
  3567     03DC  2BFA               	goto	l1393
  3568     03DD                     l1383:
  3569     03DD  3001               	movlw	1
  3570     03DE  00BE               	movwf	??___fldiv
  3571     03DF                     u1605:
  3572     03DF  1003               	clrc
  3573     03E0  0DBA               	rlf	___fldiv@b,f
  3574     03E1  0DBB               	rlf	___fldiv@b+1,f
  3575     03E2  0DBC               	rlf	___fldiv@b+2,f
  3576     03E3  0DBD               	rlf	___fldiv@b+3,f
  3577     03E4  0BBE               	decfsz	??___fldiv,f
  3578     03E5  2BDF               	goto	u1605
  3579     03E6                     l1385:
  3580     03E6  1FCD               	btfss	___fldiv@grs+3,7
  3581     03E7  2BE9               	goto	u1611
  3582     03E8  2BEA               	goto	u1610
  3583     03E9                     u1611:
  3584     03E9  2BEB               	goto	l1389
  3585     03EA                     u1610:
  3586     03EA                     l1387:
  3587     03EA  143A               	bsf	___fldiv@b,0
  3588     03EB                     l1389:
  3589     03EB  3001               	movlw	1
  3590     03EC  00BE               	movwf	??___fldiv
  3591     03ED                     u1625:
  3592     03ED  1003               	clrc
  3593     03EE  0DCA               	rlf	___fldiv@grs,f
  3594     03EF  0DCB               	rlf	___fldiv@grs+1,f
  3595     03F0  0DCC               	rlf	___fldiv@grs+2,f
  3596     03F1  0DCD               	rlf	___fldiv@grs+3,f
  3597     03F2  0BBE               	decfsz	??___fldiv,f
  3598     03F3  2BED               	goto	u1625
  3599     03F4                     l1391:
  3600     03F4  30FF               	movlw	255
  3601     03F5  07C8               	addwf	___fldiv@new_exp,f
  3602     03F6  1803               	skipnc
  3603     03F7  0AC9               	incf	___fldiv@new_exp+1,f
  3604     03F8  30FF               	movlw	255
  3605     03F9  07C9               	addwf	___fldiv@new_exp+1,f
  3606     03FA                     l1393:
  3607     03FA  1FBC               	btfss	___fldiv@b+2,7
  3608     03FB  2BFD               	goto	u1631
  3609     03FC  2BFE               	goto	u1630
  3610     03FD                     u1631:
  3611     03FD  2BDD               	goto	l1383
  3612     03FE                     u1630:
  3613     03FE                     l1395:
  3614     03FE  01CF               	clrf	___fldiv@aexp
  3615     03FF                     l1397:
  3616     03FF  1FCD               	btfss	___fldiv@grs+3,7
  3617     0400  2C02               	goto	u1641
  3618     0401  2C03               	goto	u1640
  3619     0402                     u1641:
  3620     0402  2C1F               	goto	l1405
  3621     0403                     u1640:
  3622     0403                     l1399:
  3623     0403  30FF               	movlw	255
  3624     0404  054A               	andwf	___fldiv@grs,w
  3625     0405  00BE               	movwf	??___fldiv
  3626     0406  30FF               	movlw	255
  3627     0407  054B               	andwf	___fldiv@grs+1,w
  3628     0408  00BF               	movwf	??___fldiv+1
  3629     0409  30FF               	movlw	255
  3630     040A  054C               	andwf	___fldiv@grs+2,w
  3631     040B  00C0               	movwf	??___fldiv+2
  3632     040C  307F               	movlw	127
  3633     040D  054D               	andwf	___fldiv@grs+3,w
  3634     040E  00C1               	movwf	??___fldiv+3
  3635     040F  0841               	movf	??___fldiv+3,w
  3636     0410  0440               	iorwf	??___fldiv+2,w
  3637     0411  043F               	iorwf	??___fldiv+1,w
  3638     0412  043E               	iorwf	??___fldiv,w
  3639     0413  1903               	skipnz
  3640     0414  2C16               	goto	u1651
  3641     0415  2C17               	goto	u1650
  3642     0416                     u1651:
  3643     0416  2C1A               	goto	l564
  3644     0417                     u1650:
  3645     0417                     l1401:
  3646     0417  01CF               	clrf	___fldiv@aexp
  3647     0418  0ACF               	incf	___fldiv@aexp,f
  3648     0419  2C1F               	goto	l1405
  3649     041A                     l564:
  3650     041A  1C3A               	btfss	___fldiv@b,0
  3651     041B  2C1D               	goto	u1661
  3652     041C  2C1E               	goto	u1660
  3653     041D                     u1661:
  3654     041D  2C1F               	goto	l1405
  3655     041E                     u1660:
  3656     041E  2C17               	goto	l1401
  3657     041F                     l1405:
  3658     041F  084F               	movf	___fldiv@aexp,w
  3659     0420  1903               	btfsc	3,2
  3660     0421  2C23               	goto	u1671
  3661     0422  2C24               	goto	u1670
  3662     0423                     u1671:
  3663     0423  2C55               	goto	l1415
  3664     0424                     u1670:
  3665     0424                     l1407:
  3666     0424  3001               	movlw	1
  3667     0425  07BA               	addwf	___fldiv@b,f
  3668     0426  3000               	movlw	0
  3669     0427  1803               	skipnc
  3670     0428  3001               	movlw	1
  3671     0429  07BB               	addwf	___fldiv@b+1,f
  3672     042A  3000               	movlw	0
  3673     042B  1803               	skipnc
  3674     042C  3001               	movlw	1
  3675     042D  07BC               	addwf	___fldiv@b+2,f
  3676     042E  3000               	movlw	0
  3677     042F  1803               	skipnc
  3678     0430  3001               	movlw	1
  3679     0431  07BD               	addwf	___fldiv@b+3,f
  3680     0432                     l1409:
  3681     0432  1C3D               	btfss	___fldiv@b+3,0
  3682     0433  2C35               	goto	u1681
  3683     0434  2C36               	goto	u1680
  3684     0435                     u1681:
  3685     0435  2C55               	goto	l1415
  3686     0436                     u1680:
  3687     0436                     l1411:
  3688     0436  083A               	movf	___fldiv@b,w
  3689     0437  00BE               	movwf	??___fldiv
  3690     0438  083B               	movf	___fldiv@b+1,w
  3691     0439  00BF               	movwf	??___fldiv+1
  3692     043A  083C               	movf	___fldiv@b+2,w
  3693     043B  00C0               	movwf	??___fldiv+2
  3694     043C  083D               	movf	___fldiv@b+3,w
  3695     043D  00C1               	movwf	??___fldiv+3
  3696     043E  3001               	movlw	1
  3697     043F  00C2               	movwf	??___fldiv+4
  3698     0440                     u1695:
  3699     0440  0D41               	rlf	??___fldiv+3,w
  3700     0441  0CC1               	rrf	??___fldiv+3,f
  3701     0442  0CC0               	rrf	??___fldiv+2,f
  3702     0443  0CBF               	rrf	??___fldiv+1,f
  3703     0444  0CBE               	rrf	??___fldiv,f
  3704     0445                     u1690:
  3705     0445  0BC2               	decfsz	??___fldiv+4,f
  3706     0446  2C40               	goto	u1695
  3707     0447  0841               	movf	??___fldiv+3,w
  3708     0448  00BD               	movwf	___fldiv@b+3
  3709     0449  0840               	movf	??___fldiv+2,w
  3710     044A  00BC               	movwf	___fldiv@b+2
  3711     044B  083F               	movf	??___fldiv+1,w
  3712     044C  00BB               	movwf	___fldiv@b+1
  3713     044D  083E               	movf	??___fldiv,w
  3714     044E  00BA               	movwf	___fldiv@b
  3715     044F                     l1413:
  3716     044F  3001               	movlw	1
  3717     0450  07C8               	addwf	___fldiv@new_exp,f
  3718     0451  1803               	skipnc
  3719     0452  0AC9               	incf	___fldiv@new_exp+1,f
  3720     0453  3000               	movlw	0
  3721     0454  07C9               	addwf	___fldiv@new_exp+1,f
  3722     0455                     l1415:
  3723     0455  0849               	movf	___fldiv@new_exp+1,w
  3724     0456  3A80               	xorlw	128
  3725     0457  00FF               	movwf	btemp+1
  3726     0458  3080               	movlw	128
  3727     0459  027F               	subwf	btemp+1,w
  3728     045A  1D03               	skipz
  3729     045B  2C5E               	goto	u1705
  3730     045C  30FF               	movlw	255
  3731     045D  0248               	subwf	___fldiv@new_exp,w
  3732     045E                     u1705:
  3733     045E  1C03               	skipc
  3734     045F  2C61               	goto	u1701
  3735     0460  2C62               	goto	u1700
  3736     0461                     u1701:
  3737     0461  2C70               	goto	l1419
  3738     0462                     u1700:
  3739     0462                     l1417:
  3740     0462  30FF               	movlw	255
  3741     0463  1283               	bcf	3,5	;RP0=0, select bank0
  3742     0464  1303               	bcf	3,6	;RP1=0, select bank0
  3743     0465  00C8               	movwf	___fldiv@new_exp
  3744     0466  3000               	movlw	0
  3745     0467  00C9               	movwf	___fldiv@new_exp+1
  3746     0468  3000               	movlw	0
  3747     0469  00BD               	movwf	___fldiv@b+3
  3748     046A  3000               	movlw	0
  3749     046B  00BC               	movwf	___fldiv@b+2
  3750     046C  3000               	movlw	0
  3751     046D  00BB               	movwf	___fldiv@b+1
  3752     046E  3000               	movlw	0
  3753     046F  00BA               	movwf	___fldiv@b
  3754     0470                     l1419:
  3755     0470  1283               	bcf	3,5	;RP0=0, select bank0
  3756     0471  1303               	bcf	3,6	;RP1=0, select bank0
  3757     0472  0849               	movf	___fldiv@new_exp+1,w
  3758     0473  3A80               	xorlw	128
  3759     0474  00FF               	movwf	btemp+1
  3760     0475  3080               	movlw	128
  3761     0476  027F               	subwf	btemp+1,w
  3762     0477  1D03               	skipz
  3763     0478  2C7B               	goto	u1715
  3764     0479  3001               	movlw	1
  3765     047A  0248               	subwf	___fldiv@new_exp,w
  3766     047B                     u1715:
  3767     047B  1803               	skipnc
  3768     047C  2C7E               	goto	u1711
  3769     047D  2C7F               	goto	u1710
  3770     047E                     u1711:
  3771     047E  2C8C               	goto	l570
  3772     047F                     u1710:
  3773     047F                     l1421:
  3774     047F  1283               	bcf	3,5	;RP0=0, select bank0
  3775     0480  1303               	bcf	3,6	;RP1=0, select bank0
  3776     0481  01C8               	clrf	___fldiv@new_exp
  3777     0482  01C9               	clrf	___fldiv@new_exp+1
  3778     0483                     l1423:
  3779     0483  3000               	movlw	0
  3780     0484  00BD               	movwf	___fldiv@b+3
  3781     0485  3000               	movlw	0
  3782     0486  00BC               	movwf	___fldiv@b+2
  3783     0487  3000               	movlw	0
  3784     0488  00BB               	movwf	___fldiv@b+1
  3785     0489  3000               	movlw	0
  3786     048A  00BA               	movwf	___fldiv@b
  3787     048B                     l1425:
  3788     048B  01C7               	clrf	___fldiv@sign
  3789     048C                     l570:
  3790     048C  1283               	bcf	3,5	;RP0=0, select bank0
  3791     048D  1303               	bcf	3,6	;RP1=0, select bank0
  3792     048E  0848               	movf	___fldiv@new_exp,w
  3793     048F  00CE               	movwf	___fldiv@bexp
  3794     0490                     l1427:
  3795     0490  1C4E               	btfss	___fldiv@bexp,0
  3796     0491  2C93               	goto	u1721
  3797     0492  2C94               	goto	u1720
  3798     0493                     u1721:
  3799     0493  2C96               	goto	l1431
  3800     0494                     u1720:
  3801     0494                     l1429:
  3802     0494  17BC               	bsf	___fldiv@b+2,7
  3803     0495  2C9A               	goto	l572
  3804     0496                     l1431:
  3805     0496  307F               	movlw	127
  3806     0497  00BE               	movwf	??___fldiv
  3807     0498  083E               	movf	??___fldiv,w
  3808     0499  05BC               	andwf	___fldiv@b+2,f
  3809     049A                     l572:
  3810     049A  084E               	movf	___fldiv@bexp,w
  3811     049B  00BE               	movwf	??___fldiv
  3812     049C  1003               	clrc
  3813     049D  0C3E               	rrf	??___fldiv,w
  3814     049E  00BD               	movwf	___fldiv@b+3
  3815     049F  0847               	movf	___fldiv@sign,w
  3816     04A0  00BE               	movwf	??___fldiv
  3817     04A1  083E               	movf	??___fldiv,w
  3818     04A2  04BD               	iorwf	___fldiv@b+3,f
  3819     04A3  2B40               	goto	l1339
  3820     04A4                     l550:
  3821     04A4  0008               	return
  3822     04A5                     __end_of___fldiv:
  3823                           
  3824                           	psect	text14
  3825     0EC9                     __ptext14:	
  3826 ;; *************** function _PWM_Max_Duty *****************
  3827 ;; Defined at:
  3828 ;;		line 20 in file "PWM.c"
  3829 ;; Parameters:    Size  Location     Type
  3830 ;;		None
  3831 ;; Auto vars:     Size  Location     Type
  3832 ;;		None
  3833 ;; Return value:  Size  Location     Type
  3834 ;;                  2    6[BANK0 ] int 
  3835 ;; Registers used:
  3836 ;;		wreg, status,2, status,0, pclath, cstack
  3837 ;; Tracked objects:
  3838 ;;		On entry : 0/0
  3839 ;;		On exit  : 0/0
  3840 ;;		Unchanged: 0/0
  3841 ;; Data sizes:     COMMON   BANK0   BANK1   BANK3   BANK2
  3842 ;;      Params:         0       2       0       0       0
  3843 ;;      Locals:         0       0       0       0       0
  3844 ;;      Temps:          4       0       0       0       0
  3845 ;;      Totals:         4       2       0       0       0
  3846 ;;Total ram usage:        6 bytes
  3847 ;; Hardware stack levels used: 1
  3848 ;; Hardware stack levels required when called: 1
  3849 ;; This function calls:
  3850 ;;		___aldiv
  3851 ;; This function is called by:
  3852 ;;		_PWM1_Duty
  3853 ;;		_PWM2_Duty
  3854 ;; This function uses a non-reentrant model
  3855 ;;
  3856                           
  3857     0EC9                     _PWM_Max_Duty:	
  3858                           ;psect for function _PWM_Max_Duty
  3859                           
  3860     0EC9                     l1255:	
  3861                           ;incstack = 0
  3862                           ; Regs used in _PWM_Max_Duty: [wreg+status,2+status,0+pclath+cstack]
  3863                           
  3864     0EC9  1683               	bsf	3,5	;RP0=1, select bank1
  3865     0ECA  1303               	bcf	3,6	;RP1=0, select bank1
  3866     0ECB  0824               	movf	_freq^(0+128),w
  3867     0ECC  00F9               	movwf	??_PWM_Max_Duty
  3868     0ECD  0825               	movf	(_freq+1)^(0+128),w
  3869     0ECE  00FA               	movwf	??_PWM_Max_Duty+1
  3870     0ECF  0826               	movf	(_freq+2)^(0+128),w
  3871     0ED0  00FB               	movwf	??_PWM_Max_Duty+2
  3872     0ED1  0827               	movf	(_freq+3)^(0+128),w
  3873     0ED2  00FC               	movwf	??_PWM_Max_Duty+3
  3874     0ED3  3002               	movlw	2
  3875     0ED4                     u1335:
  3876     0ED4  1003               	clrc
  3877     0ED5  0DF9               	rlf	??_PWM_Max_Duty,f
  3878     0ED6  0DFA               	rlf	??_PWM_Max_Duty+1,f
  3879     0ED7  0DFB               	rlf	??_PWM_Max_Duty+2,f
  3880     0ED8  0DFC               	rlf	??_PWM_Max_Duty+3,f
  3881     0ED9                     u1330:
  3882     0ED9  3EFF               	addlw	-1
  3883     0EDA  1D03               	skipz
  3884     0EDB  2ED4               	goto	u1335
  3885     0EDC  087C               	movf	??_PWM_Max_Duty+3,w
  3886     0EDD  00F3               	movwf	___aldiv@divisor+3
  3887     0EDE  087B               	movf	??_PWM_Max_Duty+2,w
  3888     0EDF  00F2               	movwf	___aldiv@divisor+2
  3889     0EE0  087A               	movf	??_PWM_Max_Duty+1,w
  3890     0EE1  00F1               	movwf	___aldiv@divisor+1
  3891     0EE2  0879               	movf	??_PWM_Max_Duty,w
  3892     0EE3  00F0               	movwf	___aldiv@divisor
  3893     0EE4  3000               	movlw	0
  3894     0EE5  00F7               	movwf	___aldiv@dividend+3
  3895     0EE6  303D               	movlw	61
  3896     0EE7  00F6               	movwf	___aldiv@dividend+2
  3897     0EE8  3009               	movlw	9
  3898     0EE9  00F5               	movwf	___aldiv@dividend+1
  3899     0EEA  3000               	movlw	0
  3900     0EEB  00F4               	movwf	___aldiv@dividend
  3901     0EEC  120A  118A  203F  120A  158A  	fcall	___aldiv
  3902     0EF1  0871               	movf	?___aldiv+1,w
  3903     0EF2  1283               	bcf	3,5	;RP0=0, select bank0
  3904     0EF3  1303               	bcf	3,6	;RP1=0, select bank0
  3905     0EF4  00A7               	movwf	?_PWM_Max_Duty+1
  3906     0EF5  0870               	movf	?___aldiv,w
  3907     0EF6  00A6               	movwf	?_PWM_Max_Duty
  3908     0EF7                     l84:
  3909     0EF7  0008               	return
  3910     0EF8                     __end_of_PWM_Max_Duty:
  3911                           
  3912                           	psect	text15
  3913     003F                     __ptext15:	
  3914 ;; *************** function ___aldiv *****************
  3915 ;; Defined at:
  3916 ;;		line 5 in file "C:\Program Files\Microchip\xc8\v2.40\pic\sources\c90\common\aldiv.c"
  3917 ;; Parameters:    Size  Location     Type
  3918 ;;  divisor         4    0[COMMON] long 
  3919 ;;  dividend        4    4[COMMON] long 
  3920 ;; Auto vars:     Size  Location     Type
  3921 ;;  quotient        4    2[BANK0 ] long 
  3922 ;;  sign            1    1[BANK0 ] unsigned char 
  3923 ;;  counter         1    0[BANK0 ] unsigned char 
  3924 ;; Return value:  Size  Location     Type
  3925 ;;                  4    0[COMMON] long 
  3926 ;; Registers used:
  3927 ;;		wreg, status,2, status,0
  3928 ;; Tracked objects:
  3929 ;;		On entry : 0/0
  3930 ;;		On exit  : 0/0
  3931 ;;		Unchanged: 0/0
  3932 ;; Data sizes:     COMMON   BANK0   BANK1   BANK3   BANK2
  3933 ;;      Params:         8       0       0       0       0
  3934 ;;      Locals:         0       6       0       0       0
  3935 ;;      Temps:          1       0       0       0       0
  3936 ;;      Totals:         9       6       0       0       0
  3937 ;;Total ram usage:       15 bytes
  3938 ;; Hardware stack levels used: 1
  3939 ;; This function calls:
  3940 ;;		Nothing
  3941 ;; This function is called by:
  3942 ;;		_PWM_Max_Duty
  3943 ;;		_PWM1_Init
  3944 ;;		_PWM2_Init
  3945 ;; This function uses a non-reentrant model
  3946 ;;
  3947                           
  3948     003F                     ___aldiv:	
  3949                           ;psect for function ___aldiv
  3950                           
  3951     003F                     l1201:	
  3952                           ;incstack = 0
  3953                           ; Regs used in ___aldiv: [wreg+status,2+status,0]
  3954                           
  3955     003F  1283               	bcf	3,5	;RP0=0, select bank0
  3956     0040  1303               	bcf	3,6	;RP1=0, select bank0
  3957     0041  01A1               	clrf	___aldiv@sign
  3958     0042                     l1203:
  3959     0042  1FF3               	btfss	___aldiv@divisor+3,7
  3960     0043  2845               	goto	u1201
  3961     0044  2846               	goto	u1200
  3962     0045                     u1201:
  3963     0045  2853               	goto	l264
  3964     0046                     u1200:
  3965     0046                     l1205:
  3966     0046  09F0               	comf	___aldiv@divisor,f
  3967     0047  09F1               	comf	___aldiv@divisor+1,f
  3968     0048  09F2               	comf	___aldiv@divisor+2,f
  3969     0049  09F3               	comf	___aldiv@divisor+3,f
  3970     004A  0AF0               	incf	___aldiv@divisor,f
  3971     004B  1903               	skipnz
  3972     004C  0AF1               	incf	___aldiv@divisor+1,f
  3973     004D  1903               	skipnz
  3974     004E  0AF2               	incf	___aldiv@divisor+2,f
  3975     004F  1903               	skipnz
  3976     0050  0AF3               	incf	___aldiv@divisor+3,f
  3977     0051  01A1               	clrf	___aldiv@sign
  3978     0052  0AA1               	incf	___aldiv@sign,f
  3979     0053                     l264:
  3980     0053  1FF7               	btfss	___aldiv@dividend+3,7
  3981     0054  2856               	goto	u1211
  3982     0055  2857               	goto	u1210
  3983     0056                     u1211:
  3984     0056  2866               	goto	l1211
  3985     0057                     u1210:
  3986     0057                     l1207:
  3987     0057  09F4               	comf	___aldiv@dividend,f
  3988     0058  09F5               	comf	___aldiv@dividend+1,f
  3989     0059  09F6               	comf	___aldiv@dividend+2,f
  3990     005A  09F7               	comf	___aldiv@dividend+3,f
  3991     005B  0AF4               	incf	___aldiv@dividend,f
  3992     005C  1903               	skipnz
  3993     005D  0AF5               	incf	___aldiv@dividend+1,f
  3994     005E  1903               	skipnz
  3995     005F  0AF6               	incf	___aldiv@dividend+2,f
  3996     0060  1903               	skipnz
  3997     0061  0AF7               	incf	___aldiv@dividend+3,f
  3998     0062                     l1209:
  3999     0062  3001               	movlw	1
  4000     0063  00F8               	movwf	??___aldiv
  4001     0064  0878               	movf	??___aldiv,w
  4002     0065  06A1               	xorwf	___aldiv@sign,f
  4003     0066                     l1211:
  4004     0066  3000               	movlw	0
  4005     0067  00A5               	movwf	___aldiv@quotient+3
  4006     0068  3000               	movlw	0
  4007     0069  00A4               	movwf	___aldiv@quotient+2
  4008     006A  3000               	movlw	0
  4009     006B  00A3               	movwf	___aldiv@quotient+1
  4010     006C  3000               	movlw	0
  4011     006D  00A2               	movwf	___aldiv@quotient
  4012     006E                     l1213:
  4013     006E  0873               	movf	___aldiv@divisor+3,w
  4014     006F  0472               	iorwf	___aldiv@divisor+2,w
  4015     0070  0471               	iorwf	___aldiv@divisor+1,w
  4016     0071  0470               	iorwf	___aldiv@divisor,w
  4017     0072  1903               	skipnz
  4018     0073  2875               	goto	u1221
  4019     0074  2876               	goto	u1220
  4020     0075                     u1221:
  4021     0075  28C3               	goto	l1233
  4022     0076                     u1220:
  4023     0076                     l1215:
  4024     0076  01A0               	clrf	___aldiv@counter
  4025     0077  0AA0               	incf	___aldiv@counter,f
  4026     0078  2886               	goto	l1219
  4027     0079                     l1217:
  4028     0079  3001               	movlw	1
  4029     007A  00F8               	movwf	??___aldiv
  4030     007B                     u1235:
  4031     007B  1003               	clrc
  4032     007C  0DF0               	rlf	___aldiv@divisor,f
  4033     007D  0DF1               	rlf	___aldiv@divisor+1,f
  4034     007E  0DF2               	rlf	___aldiv@divisor+2,f
  4035     007F  0DF3               	rlf	___aldiv@divisor+3,f
  4036     0080  0BF8               	decfsz	??___aldiv,f
  4037     0081  287B               	goto	u1235
  4038     0082  3001               	movlw	1
  4039     0083  00F8               	movwf	??___aldiv
  4040     0084  0878               	movf	??___aldiv,w
  4041     0085  07A0               	addwf	___aldiv@counter,f
  4042     0086                     l1219:
  4043     0086  1FF3               	btfss	___aldiv@divisor+3,7
  4044     0087  2889               	goto	u1241
  4045     0088  288A               	goto	u1240
  4046     0089                     u1241:
  4047     0089  2879               	goto	l1217
  4048     008A                     u1240:
  4049     008A                     l1221:
  4050     008A  3001               	movlw	1
  4051     008B  00F8               	movwf	??___aldiv
  4052     008C                     u1255:
  4053     008C  1003               	clrc
  4054     008D  0DA2               	rlf	___aldiv@quotient,f
  4055     008E  0DA3               	rlf	___aldiv@quotient+1,f
  4056     008F  0DA4               	rlf	___aldiv@quotient+2,f
  4057     0090  0DA5               	rlf	___aldiv@quotient+3,f
  4058     0091  0BF8               	decfsz	??___aldiv,f
  4059     0092  288C               	goto	u1255
  4060     0093                     l1223:
  4061     0093  0873               	movf	___aldiv@divisor+3,w
  4062     0094  0277               	subwf	___aldiv@dividend+3,w
  4063     0095  1D03               	skipz
  4064     0096  28A1               	goto	u1265
  4065     0097  0872               	movf	___aldiv@divisor+2,w
  4066     0098  0276               	subwf	___aldiv@dividend+2,w
  4067     0099  1D03               	skipz
  4068     009A  28A1               	goto	u1265
  4069     009B  0871               	movf	___aldiv@divisor+1,w
  4070     009C  0275               	subwf	___aldiv@dividend+1,w
  4071     009D  1D03               	skipz
  4072     009E  28A1               	goto	u1265
  4073     009F  0870               	movf	___aldiv@divisor,w
  4074     00A0  0274               	subwf	___aldiv@dividend,w
  4075     00A1                     u1265:
  4076     00A1  1C03               	skipc
  4077     00A2  28A4               	goto	u1261
  4078     00A3  28A5               	goto	u1260
  4079     00A4                     u1261:
  4080     00A4  28B4               	goto	l1229
  4081     00A5                     u1260:
  4082     00A5                     l1225:
  4083     00A5  0870               	movf	___aldiv@divisor,w
  4084     00A6  02F4               	subwf	___aldiv@dividend,f
  4085     00A7  0871               	movf	___aldiv@divisor+1,w
  4086     00A8  1C03               	skipc
  4087     00A9  0F71               	incfsz	___aldiv@divisor+1,w
  4088     00AA  02F5               	subwf	___aldiv@dividend+1,f
  4089     00AB  0872               	movf	___aldiv@divisor+2,w
  4090     00AC  1C03               	skipc
  4091     00AD  0F72               	incfsz	___aldiv@divisor+2,w
  4092     00AE  02F6               	subwf	___aldiv@dividend+2,f
  4093     00AF  0873               	movf	___aldiv@divisor+3,w
  4094     00B0  1C03               	skipc
  4095     00B1  0F73               	incfsz	___aldiv@divisor+3,w
  4096     00B2  02F7               	subwf	___aldiv@dividend+3,f
  4097     00B3                     l1227:
  4098     00B3  1422               	bsf	___aldiv@quotient,0
  4099     00B4                     l1229:
  4100     00B4  3001               	movlw	1
  4101     00B5                     u1275:
  4102     00B5  1003               	clrc
  4103     00B6  0CF3               	rrf	___aldiv@divisor+3,f
  4104     00B7  0CF2               	rrf	___aldiv@divisor+2,f
  4105     00B8  0CF1               	rrf	___aldiv@divisor+1,f
  4106     00B9  0CF0               	rrf	___aldiv@divisor,f
  4107     00BA  3EFF               	addlw	-1
  4108     00BB  1D03               	skipz
  4109     00BC  28B5               	goto	u1275
  4110     00BD                     l1231:
  4111     00BD  3001               	movlw	1
  4112     00BE  02A0               	subwf	___aldiv@counter,f
  4113     00BF  1D03               	btfss	3,2
  4114     00C0  28C2               	goto	u1281
  4115     00C1  28C3               	goto	u1280
  4116     00C2                     u1281:
  4117     00C2  288A               	goto	l1221
  4118     00C3                     u1280:
  4119     00C3                     l1233:
  4120     00C3  0821               	movf	___aldiv@sign,w
  4121     00C4  1903               	btfsc	3,2
  4122     00C5  28C7               	goto	u1291
  4123     00C6  28C8               	goto	u1290
  4124     00C7                     u1291:
  4125     00C7  28D3               	goto	l1237
  4126     00C8                     u1290:
  4127     00C8                     l1235:
  4128     00C8  09A2               	comf	___aldiv@quotient,f
  4129     00C9  09A3               	comf	___aldiv@quotient+1,f
  4130     00CA  09A4               	comf	___aldiv@quotient+2,f
  4131     00CB  09A5               	comf	___aldiv@quotient+3,f
  4132     00CC  0AA2               	incf	___aldiv@quotient,f
  4133     00CD  1903               	skipnz
  4134     00CE  0AA3               	incf	___aldiv@quotient+1,f
  4135     00CF  1903               	skipnz
  4136     00D0  0AA4               	incf	___aldiv@quotient+2,f
  4137     00D1  1903               	skipnz
  4138     00D2  0AA5               	incf	___aldiv@quotient+3,f
  4139     00D3                     l1237:
  4140     00D3  0825               	movf	___aldiv@quotient+3,w
  4141     00D4  00F3               	movwf	?___aldiv+3
  4142     00D5  0824               	movf	___aldiv@quotient+2,w
  4143     00D6  00F2               	movwf	?___aldiv+2
  4144     00D7  0823               	movf	___aldiv@quotient+1,w
  4145     00D8  00F1               	movwf	?___aldiv+1
  4146     00D9  0822               	movf	___aldiv@quotient,w
  4147     00DA  00F0               	movwf	?___aldiv
  4148     00DB                     l274:
  4149     00DB  0008               	return
  4150     00DC                     __end_of___aldiv:
  4151     007E                     btemp	set	126	;btemp
  4152     007E                     wtemp0	set	126
  4153                           
  4154                           	psect	idloc
  4155                           
  4156                           ;Config register IDLOC0 @ 0x2000
  4157                           ;	unspecified, using default values
  4158     2000                     	org	8192
  4159     2000  3FFF               	dw	16383
  4160                           
  4161                           ;Config register IDLOC1 @ 0x2001
  4162                           ;	unspecified, using default values
  4163     2001                     	org	8193
  4164     2001  3FFF               	dw	16383
  4165                           
  4166                           ;Config register IDLOC2 @ 0x2002
  4167                           ;	unspecified, using default values
  4168     2002                     	org	8194
  4169     2002  3FFF               	dw	16383
  4170                           
  4171                           ;Config register IDLOC3 @ 0x2003
  4172                           ;	unspecified, using default values
  4173     2003                     	org	8195
  4174     2003  3FFF               	dw	16383
  4175                           
  4176                           	psect	config
  4177                           
  4178                           ;Config register CONFIG @ 0x2007
  4179                           ;	Oscillator Selection bits
  4180                           ;	FOSC = XT, XT oscillator
  4181                           ;	Watchdog Timer Enable bit
  4182                           ;	WDTE = OFF, WDT disabled
  4183                           ;	Power-up Timer Enable bit
  4184                           ;	PWRTE = OFF, PWRT disabled
  4185                           ;	Brown-out Reset Enable bit
  4186                           ;	BOREN = OFF, BOR disabled
  4187                           ;	Low-Voltage (Single-Supply) In-Circuit Serial Programming Enable bit
  4188                           ;	LVP = OFF, RB3 is digital I/O, HV on MCLR must be used for programming
  4189                           ;	Data EEPROM Memory Code Protection bit
  4190                           ;	CPD = OFF, Data EEPROM code protection off
  4191                           ;	Flash Program Memory Write Enable bits
  4192                           ;	WRT = OFF, Write protection off; all program memory may be written to by EECON control
  4193                           ;	In-Circuit Debugger Mode bit
  4194                           ;	DEBUG = 0x1, unprogrammed default
  4195                           ;	Flash Program Memory Code Protection bit
  4196                           ;	CP = OFF, Code protection off
  4197     2007                     	org	8199
  4198     2007  3F39               	dw	16185

Data Sizes:
    Strings     0
    Constant    0
    Data        8
    BSS         2
    Persistent  0
    Stack       0

Auto Spaces:
    Space          Size  Autos    Used
    COMMON           14     13      13
    BANK0            80     80      80
    BANK1            80      8      18
    BANK3            96      0       0
    BANK2            96      0       0

Pointer List with Targets:

    None.

Critical Paths under _main in COMMON

    _PWM_ST->_PWM1_Init
    _PWM_ST->_PWM2_Init
    _PWM2_Init->___aldiv
    _PWM2_Duty->_PWM_Max_Duty
    _PWM1_Init->___aldiv
    _PWM1_Duty->_PWM_Max_Duty
    ___xxtofl->_PWM_Max_Duty
    ___fltol->_PWM_Max_Duty
    ___flmul->_PWM_Max_Duty
    _PWM_Max_Duty->___aldiv

Critical Paths under _main in BANK0

    _PWM2_Init->___aldiv
    _PWM2_Duty->___fltol
    _PWM1_Init->___aldiv
    _PWM1_Duty->___fltol
    ___xxtofl->_PWM_Max_Duty
    ___fltol->___flmul
    ___flmul->___fldiv
    ___fldiv->___xxtofl
    _PWM_Max_Duty->___aldiv

Critical Paths under _main in BANK1

    _main->_PWM2_Duty
    _PWM_ST->_PWM1_Duty
    _PWM_ST->_PWM2_Duty
    _PWM2_Duty->___fltol
    _PWM1_Duty->___fltol

Critical Paths under _main in BANK3

    None.

Critical Paths under _main in BANK2

    None.

Call Graph Tables:

 ---------------------------------------------------------------------------------
 (Depth) Function   	        Calls       Base Space   Used Autos Params    Refs
 ---------------------------------------------------------------------------------
 (0) _main                                                 0     0      0   19626
                          _PWM2_Duty
                             _PWM_ST
                             _inicia
 ---------------------------------------------------------------------------------
 (1) _inicia                                               0     0      0       0
 ---------------------------------------------------------------------------------
 (1) _PWM_ST                                               0     0      0   13628
                          _PWM1_Duty
                          _PWM1_Init
                         _PWM1_Start
                          _PWM2_Duty
                          _PWM2_Init
                         _PWM2_Start
 ---------------------------------------------------------------------------------
 (2) _PWM2_Start                                           0     0      0       0
 ---------------------------------------------------------------------------------
 (2) _PWM2_Init                                            8     4      4     854
                                              9 COMMON     4     4      0
                                              6 BANK0      4     0      4
                            ___aldiv
 ---------------------------------------------------------------------------------
 (2) _PWM2_Duty                                            4     2      2    5998
                                              4 BANK1      4     2      2
                       _PWM_Max_Duty
                            ___fldiv
                            ___flmul
                            ___fltol
                           ___xxtofl
 ---------------------------------------------------------------------------------
 (2) _PWM1_Start                                           0     0      0       0
 ---------------------------------------------------------------------------------
 (2) _PWM1_Init                                            8     4      4     854
                                              9 COMMON     4     4      0
                                              6 BANK0      4     0      4
                            ___aldiv
 ---------------------------------------------------------------------------------
 (2) _PWM1_Duty                                            4     2      2    5922
                                              4 BANK1      4     2      2
                       _PWM_Max_Duty
                            ___fldiv
                            ___flmul
                            ___fltol
                           ___xxtofl
 ---------------------------------------------------------------------------------
 (3) ___xxtofl                                            14    10      4     626
                                              8 BANK0     14    10      4
                       _PWM_Max_Duty (ARG)
 ---------------------------------------------------------------------------------
 (3) ___fltol                                             10     6      4     381
                                             74 BANK0      6     2      4
                                              0 BANK1      4     4      0
                       _PWM_Max_Duty (ARG)
                            ___fldiv (ARG)
                            ___flmul (ARG)
                           ___xxtofl (ARG)
 ---------------------------------------------------------------------------------
 (3) ___flmul                                             26    18      8    2569
                                             48 BANK0     26    18      8
                       _PWM_Max_Duty (ARG)
                          __Umul8_16
                            ___fldiv (ARG)
                           ___xxtofl (ARG)
 ---------------------------------------------------------------------------------
 (4) __Umul8_16                                            9     7      2     799
                                              0 COMMON     9     7      2
 ---------------------------------------------------------------------------------
 (3) ___fldiv                                             26    18      8    1425
                                             22 BANK0     26    18      8
                           ___xxtofl (ARG)
 ---------------------------------------------------------------------------------
 (3) _PWM_Max_Duty                                         6     4      2     756
                                              9 COMMON     4     4      0
                                              6 BANK0      2     0      2
                            ___aldiv
 ---------------------------------------------------------------------------------
 (3) ___aldiv                                             15     7      8     756
                                              0 COMMON     9     1      8
                                              0 BANK0      6     6      0
 ---------------------------------------------------------------------------------
 Estimated maximum stack depth 4
 ---------------------------------------------------------------------------------

 Call Graph Graphs:

 _main (ROOT)
   _PWM2_Duty
     _PWM_Max_Duty
       ___aldiv
     ___fldiv
       ___xxtofl (ARG)
         _PWM_Max_Duty (ARG)
     ___flmul
       _PWM_Max_Duty (ARG)
       __Umul8_16 (ARG)
       ___fldiv (ARG)
       ___xxtofl (ARG)
     ___fltol
       _PWM_Max_Duty (ARG)
       ___fldiv (ARG)
       ___flmul (ARG)
       ___xxtofl (ARG)
     ___xxtofl
   _PWM_ST
     _PWM1_Duty
       _PWM_Max_Duty
       ___fldiv
       ___flmul
       ___fltol
       ___xxtofl
     _PWM1_Init
       ___aldiv
     _PWM1_Start
     _PWM2_Duty
     _PWM2_Init
       ___aldiv
     _PWM2_Start
   _inicia

 Address spaces:
Name               Size   Autos  Total    Cost      Usage
BANK3               60      0       0       9        0.0%
BITBANK3            60      0       0       8        0.0%
SFR3                 0      0       0       4        0.0%
BITSFR3              0      0       0       4        0.0%
BANK2               60      0       0      11        0.0%
BITBANK2            60      0       0      10        0.0%
SFR2                 0      0       0       5        0.0%
BITSFR2              0      0       0       5        0.0%
BANK1               50      8      12       7       22.5%
BITBANK1            50      0       0       6        0.0%
SFR1                 0      0       0       2        0.0%
BITSFR1              0      0       0       2        0.0%
BANK0               50     50      50       5      100.0%
BITBANK0            50      0       0       4        0.0%
SFR0                 0      0       0       1        0.0%
BITSFR0              0      0       0       1        0.0%
COMMON               E      D       D       1       92.9%
BITCOMMON            E      0       0       0        0.0%
CODE                 0      0       0       0        0.0%
DATA                 0      0      6F      12        0.0%
ABS                  0      0      6F       3        0.0%
NULL                 0      0       0       0        0.0%
STACK                0      0       0       2        0.0%
EEDATA             100      0       0       0        0.0%


Microchip Technology PIC Macro Assembler V2.40 build 20220703182018 
Symbol Table                                                                                   Fri Mar 17 18:49:00 2023

           ___fldiv@aexp 004F             ___fldiv@bexp 004E                        pc 0002  
           ___fldiv@sign 0047                       l44 0E9E                       l45 0E9E  
                     l39 0E88                       l90 003E                       l84 0EF7  
                     l94 0179                       l87 0F2E                       l98 0217  
                     fsr 0004      __Umul8_16@word_mpld 0076                      l101 0E56  
                    l113 0F6B                      l107 0E5F                      l264 0053  
                    l600 07DD                      l274 00DB                      l550 04A4  
                    l607 0EB6                      l392 0FEA                      l632 023C  
                    l609 0EC8                      l385 0FFF                      l570 048C  
                    l634 02D1                      l395 0FFF                      l572 049A  
                    l564 041A                      l548 0328                      l645 029B  
                    l646 02A7                      l638 027F                      l594 0759  
                    l588 07E9                      _PR2 0092                      indf 0000  
           ___flmul@aexp 0062             ___flmul@bexp 0063             ___flmul@sign 005D  
           ___flmul@temp 0068             ___flmul@prod 0064             ___fltol@exp1 006F  
                   l1201 003F                     l1211 0066                     l1203 0042  
                   l1221 008A                     l1213 006E                     l1205 0046  
                   l1301 02DF                     l1231 00BD                     l1223 0093  
                   l1215 0076                     l1207 0057                     l1311 02F3  
                   l1303 02E0                     l1151 0E57                     l1225 00A5  
                   l1217 0079                     l1233 00C3                     l1209 0062  
                   l1401 0417                     l1321 030A                     l1305 02E5  
                   l1313 02F5                     l1241 0EA3                     l1161 0E7E  
                   l1153 0E73                     l1235 00C8                     l1227 00B3  
                   l1219 0086                     l1411 0436                     l1331 031E  
                   l1323 030B                     l1315 02FD                     l1307 02EA  
                   l1251 0EC4                     l1243 0EA5                     l1163 0E7F  
                   l1155 0E79                     l1237 00D3                     l1229 00B4  
                   l1421 047F                     l1413 044F                     l1405 041F  
                   l1325 0310                     l1333 0320                     l1317 0302  
                   l1309 02F2                     l1245 0EAC                     l1501 05F4  
                   l1261 0F77                     l1149 0E4E                     l1157 0E7B  
                   l1255 0EC9                     l1431 0496                     l1423 0483  
                   l1407 0424                     l1415 0455                     l1351 0369  
                   l1335 0330                     l1343 0349                     l1327 0315  
                   l1319 0306                     l1247 0EB0                     l1511 067E  
                   l1503 0602                     l1271 0FAC                     l1159 0E7D  
                   l1425 048B                     l1417 0462                     l1409 0432  
                   l1361 0388                     l1353 0371                     l1345 034E  
                   l1337 033C                     l1329 031D                     l1249 0EBF  
                   l1521 070E                     l1513 068C                     l1505 061F  
                   l1441 04AE                     l1281 0FBA                     l1273 0FAE  
                   l1265 0F80                     l1601 0286                     l1427 0490  
                   l1419 0470                     l1371 03BA                     l1363 039A  
                   l1355 0379                     l1339 0340                     l1531 0733  
                   l1523 071C                     l1515 06B7                     l1507 0636  
                   l1451 04C5                     l1443 04B2                     l1291 0FEF  
                   l1275 0FB2                     l1283 0FD0                     l1267 0FA3  
                   l1259 0F6C                     l1611 02BF                     l1603 0291  
                   l1429 0494                     l1381 03DB                     l1373 03BB  
                   l1365 039E                     l1357 0381                     l1349 0357  
                   l1541 0756                     l1525 0725                     l1533 0739  
                   l1517 06DD                     l1509 0653                     l1461 04DC  
                   l1453 04C7                     l1445 04B3                     l1437 04A5  
                   l1293 0FF4                     l1269 0FA4                     l1613 02C4  
                   l1605 0295                     l1621 017A                     l1391 03F4  
                   l1383 03DD                     l1375 03C9                     l1367 039F  
                   l1359 0383                     l1295 02D2                     l1551 0775  
                   l1535 073D                     l1527 0729                     l1519 0705  
                   l1471 04F1                     l1463 04DD                     l1455 04CF  
                   l1447 04B8                     l1439 04AA                     l1615 02C8  
                   l1607 029F                     l1631 0EF8                     l1623 0185  
                   l1385 03E6                     l1393 03FA                     l1369 03A8  
                   l1377 03CD                     l1297 02D7                     l1561 07BB  
                   l1553 078E                     l1545 075E                     l1537 073E  
                   l1529 072A                     l1481 050C                     l1473 04F9  
                   l1465 04E2                     l1457 04D4                     l1449 04BD  
                   l1289 0FD7                     l1617 02C9                     l1609 02A9  
                   l1641 015D                     l1625 01F8                     l1633 0008  
                   l1395 03FE                     l1387 03EA                     l1379 03D3  
                   l1299 02DB                     l1571 07D8                     l1563 07C5  
                   l1547 0763                     l1555 0794                     l1539 0742  
                   l1491 0588                     l1483 051A                     l1475 04FE  
                   l1467 04E7                     l1459 04D8                     l1643 0169  
                   l1635 00DC                     l1627 01FB                     l1651 0F61  
                   l1397 03FF                     l1389 03EB                     l1573 07E1  
                   l1565 07C7                     l1557 07A1                     l1549 0771  
                   l1493 05A4                     l1485 0527                     l1477 0503  
                   l1469 04EF                     l1581 0224                     l1637 00E7  
                   l1629 0207                     l1653 0F66                     l1645 0F2F  
                   l1399 0403                     l1567 07D3                     l1559 07AC  
                   l1495 05C0                     l1487 0542                     l1591 0250  
                   l1583 0234                     l1639 015A                     l1647 0F4D  
                   l1655 0E89                     l1569 07D7                     l1497 05C9  
                   l1489 055E                     l1593 025D                     l1585 0244  
                   l1577 021B                     l1649 0F57                     l1657 0E8E  
                   l1499 05D7                     l1595 0264                     l1579 0220  
                   l1659 0E93                     l1597 0268                     l1589 024D  
                   l1599 0276                     u1200 0046                     u2000 073D  
                   u1201 0045                     u2001 073C                     u1210 0057  
                   u2010 0742                     u1211 0056                     u2011 0741  
                   u1220 0076                     u1300 0EB0                     u2020 0756  
                   u2100 0220                     u1221 0075                     u1301 0EAF  
                   u2021 0755                     u2101 021F                     u2030 075D  
                   u2110 0224                     u2031 075C                     u2111 0223  
                   u1240 008A                     u1320 0EC4                     u2040 0763  
                   u1400 0FD6                     u2200 029F                     u2120 0244  
                   u1241 0089                     u1321 0EC3                     u2041 0762  
                   u1401 0FD5                     u2201 029E                     u2121 0243  
                   u1330 0ED9                     u2050 0775                     u2210 02B4  
                   u1235 007B                     u1315 0EB7                     u2051 0774  
                   u1260 00A5                     u1500 0330                     u2060 0784  
                   u1420 0FEF                     u1340 0F77                     u2220 02C4  
                   u2140 0263                     u2300 0021                     u1261 00A4  
                   u1501 032F                     u1421 0FEE                     u1341 0F76  
                   u2221 02C3                     u2141 0262                     u1510 034E  
                   u2070 07A1                     u1430 0FF4                     u1350 0F9C  
                   u2230 02C8                     u2310 00E7                     u1255 008C  
                   u1335 0ED4                     u1511 034D                     u2071 07A0  
                   u1431 0FF3                     u1415 0FDB                     u2231 02C7  
                   u2215 02AF                     u2135 0255                     u2311 00E6  
                   u1280 00C3                     u1520 0388                     u1440 02DF  
                   u2080 07BB                     u1360 0FB2                     u2160 0285  
                   u2320 0166                     u2240 0185                     u1281 00C2  
                   u1265 00A1                     u1521 0387                     u1441 02DE  
                   u2081 07BA                     u2065 077F                     u1361 0FB1  
                   u2161 0284                     u2321 0162                     u2241 0184  
                   u2305 001C                     u1290 00C8                     u1610 03EA  
                   u1450 02E5                     u2090 07D7                     u1370 0FB9  
                   u2250 0204                     u1291 00C7                     u1275 00B5  
                   u1611 03E9                     u1451 02E4                     u2091 07D6  
                   u2075 079D                     u1371 0FB8                     u1355 0F97  
                   u2155 0277                     u2251 0200                     u1700 0462  
                   u1460 02EA                     u2180 0295                     u1701 0461  
                   u1605 03DF                     u1461 02E9                     u2085 07B7  
                   u2181 0294                     u1710 047F                     u1630 03FE  
                   u1550 039E                     u1470 030A                     u1390 0FCF  
                   u2190 029B                     u2334 0169                     u2270 0F08  
                   u1711 047E                     u1631 03FD                     u1551 039D  
                   u1535 038A                     u1471 0309                     u1391 0FCE  
                   u2191 029A                     u2175 028A                     u1720 0494  
                   u1640 0403                     u1480 0310                     u1800 0503  
                   u2280 0F11                     u2264 0207                     u1721 0493  
                   u1705 045E                     u1641 0402                     u1625 03ED  
                   u1545 0393                     u1481 030F                     u1801 0502  
                   u1385 0FBB                     u1650 0417                     u1570 03BA  
                   u1490 0315                     u1730 04B2                     u2290 0018  
                   u1715 047B                     u1651 0416                     u1571 03B9  
                   u1491 0314                     u1811 0550                     u1731 04B1  
                   u2275 0F03                     u1660 041E                     u1580 03D3  
                   u1812 0557                     u1740 04B8                     u1661 041D  
                   u1581 03D2                     u1565 03A1                     u1901 0670  
                   u1821 056C                     u1813 055E                     u1741 04B7  
                   u2285 0F0C                     u1670 0424                     u1590 03DB  
                   u1902 0677                     u1822 0573                     u1750 04BD  
                   u1671 0423                     u1591 03DA                     u1575 03B6  
                   u1911 069B                     u1903 067E                     u1831 0596  
                   u1823 057A                     u1751 04BC                     u2295 0013  
                   u1680 0436                     u1920 06C3                     u1912 06A2  
                   u1832 059D                     u1760 04DC                     u1681 0435  
                   u1913 06A9                     u1841 05B2                     u1833 05A4  
                   u1761 04DB                     u1690 0445                     u1842 05B9  
                   u1770 04E2                     u1931 06CF                     u1843 05C0  
                   u1771 04E1                     u1940 06EB                     u1932 06D6  
                   u1780 04E7                     u1933 06DD                     u1925 06BE  
                   u1861 05E6                     u1781 04E6                     u1862 05ED  
                   u1790 04FE                     u1695 0440                     u1951 06F7  
                   u1871 0611                     u1863 05F4                     u1855 05C2  
                   u1791 04FD                     u1952 06FE                     u1872 0618  
                   u1953 0705                     u1945 06E6                     u1873 061F  
                   u1891 0645                     u1980 0729                     u1892 064C  
                   u1981 0728                     u1965 0707                     u1893 0653  
                   u1885 0621                     u1975 071E                     u1995 072C  
           _PWM_Max_Duty 0EC9                     _main 0E89                     _freq 00A4  
                   _duty 00B0                     btemp 007E                     start 0000  
        ___fldiv@new_exp 0048            ___fltol@sign1 006E          __end_of___aldiv 00DC  
                  ?_main 0070                    _CCP1X 00BD          __end_of___fldiv 04A5  
                  _CCP1Y 00BC                    _CCP2X 00ED                    _CCP2Y 00EC  
        __end_of___flmul 07EA          __end_of___fltol 1000                    _PORTA 0005  
                  _PORTB 0006                    _PORTC 0007                    _PORTD 0008  
                  _PORTE 0009                    _TRISA 0085                    _TRISB 0086  
                  _TRISC 0087                    _TRISD 0088                    _TRISE 0089  
            ?_PWM1_Start 0070              ?_PWM2_Start 0070                    pclath 000A  
                  status 0003                    wtemp0 007E          __initialization 07EA  
           __end_of_main 0EA2                   ??_main 007D                   _ADCON1 009F  
                 _CCP1M2 00BA                   _CCP1M3 00BB                   _CCP2M2 00EA  
                 _CCP2M3 00EB                   _CCPR1L 0015                   _CCPR2L 001B  
                 _TMR2ON 0092                   _TRISC1 0439                   _TRISC2 043A  
                 _PWM_ST 0F2F         __end_of___xxtofl 02D2        __end_of_PWM1_Init 0F2F  
      __end_of_PWM1_Duty 017A        __end_of_PWM2_Init 003F        __end_of_PWM2_Duty 0218  
              ??___aldiv 0078                ??___fldiv 003E                ??___flmul 0058  
              ??___fltol 00A8                   _inicia 0E73             ___xxtofl@arg 0032  
           ___xxtofl@exp 0031             ___xxtofl@val 0028  __end_of__initialization 07FC  
             ___fltol@f1 006A           __pcstackCOMMON 0070             __pidataBANK1 0E46  
         _OPTION_REGbits 0081               __pbssBANK1 00B0                  ?_PWM_ST 0070  
      __end_of__Umul8_16 0EC9               __pmaintext 0E89                  ?_inicia 0070  
              ?___xxtofl 0028             ??_PWM1_Start 0070             ??_PWM2_Start 0070  
                ___aldiv 003F                  ___fldiv 02D2                  ___flmul 04A5  
                ___fltol 0F6C       __end_of_PWM1_Start 0E57       __end_of_PWM2_Start 0E60  
                __ptext1 0E73                  __ptext2 0F2F                  __ptext3 0E57  
                __ptext4 0008                  __ptext5 017A                  __ptext6 0E4E  
                __ptext7 0EF8                  __ptext8 00DC                  __ptext9 0218  
             ??___xxtofl 002C         ___aldiv@dividend 0074     end_of_initialization 07FC  
       ___aldiv@quotient 0022                _PWM1_Init 0EF8                _PWM1_Duty 00DC  
              _PWM2_Init 0008                _PWM2_Duty 017A            ___xxtofl@sign 0030  
            ___fldiv@grs 004A              ___fldiv@rem 0043              ___flmul@grs 005E  
         __end_of_PWM_ST 0F6C               ?_PWM1_Init 0026               ?_PWM1_Duty 00AC  
             ?_PWM2_Init 0026               ?_PWM2_Duty 00AC           __end_of_inicia 0E89  
    start_initialization 07EA            ?_PWM_Max_Duty 0026                 ??_PWM_ST 007D  
             init_fetch0 0E60                __Umul8_16 0EA2              __pdataBANK1 00A0  
               ??_inicia 0070                ___fldiv@a 0036                ___fldiv@b 003A  
              ___flmul@a 0054                ___flmul@b 0050                ___latbits 0002  
          __pcstackBANK0 0020            __pcstackBANK1 00A8           ??_PWM_Max_Duty 0079  
               ?___aldiv 0070                 ?___fldiv 0036                 ?___flmul 0050  
               ?___fltol 006A               ?__Umul8_16 0070              ??_PWM1_Init 0079  
            ??_PWM1_Duty 00AE              ??_PWM2_Init 0079              ??_PWM2_Duty 00AE  
        ___aldiv@divisor 0070          ___aldiv@counter 0020            PWM1_Init@freq 0026  
          PWM1_Duty@duty 00AC            PWM2_Init@freq 0026            PWM2_Duty@duty 00AC  
            ??__Umul8_16 0072     __end_of_PWM_Max_Duty 0EF8             _TMR2PRESCALE 00A0  
               ___xxtofl 0218                 __ptext10 0F6C                 __ptext11 04A5  
               __ptext12 0EA2                 __ptext13 02D2                 __ptext14 0EC9  
               __ptext15 003F               _INTCONbits 000B                 init_ram0 0E64  
 __Umul8_16@multiplicand 0070             ___aldiv@sign 0021               _PWM1_Start 0E4E  
             _PWM2_Start 0E57     __Umul8_16@multiplier 0078        __Umul8_16@product 0074  
