

Microchip MPLAB XC8 Assembler V2.40 build 20220703182018 
                                                                                               Sun Mar 19 12:13:41 2023

Microchip MPLAB XC8 C Compiler v2.40 (Free license) build 20220703182018 Og1 
     1                           	processor	16F877A
     2                           	pagewidth 120
     3                           	opt	flic
     4                           	psect	idataBANK1,global,class=CODE,delta=2,noexec
     5                           	psect	idataBANK3,global,class=CODE,delta=2,noexec
     6                           	psect	cinit,global,class=CODE,merge=1,delta=2
     7                           	psect	bssCOMMON,global,class=COMMON,space=1,delta=1,noexec
     8                           	psect	bssBANK1,global,class=BANK1,space=1,delta=1,noexec
     9                           	psect	dataBANK1,global,class=BANK1,space=1,delta=1,noexec
    10                           	psect	bssBANK3,global,class=BANK3,space=1,delta=1,noexec
    11                           	psect	dataBANK3,global,class=BANK3,space=1,delta=1,noexec
    12                           	psect	inittext,global,class=CODE,delta=2
    13                           	psect	clrtext,global,class=CODE,delta=2
    14                           	psect	cstackBANK3,global,class=BANK3,space=1,delta=1,noexec
    15                           	psect	cstackBANK1,global,class=BANK1,space=1,delta=1,noexec
    16                           	psect	cstackCOMMON,global,class=COMMON,space=1,delta=1,noexec
    17                           	psect	cstackBANK0,global,class=BANK0,space=1,delta=1,noexec
    18                           	psect	maintext,global,class=CODE,split=1,delta=2
    19                           	psect	text1,local,class=CODE,merge=1,delta=2
    20                           	psect	text2,local,class=CODE,merge=1,delta=2
    21                           	psect	text3,local,class=CODE,merge=1,delta=2
    22                           	psect	text4,local,class=CODE,merge=1,delta=2
    23                           	psect	text5,local,class=CODE,merge=1,delta=2
    24                           	psect	text6,local,class=CODE,merge=1,delta=2
    25                           	psect	text7,local,class=CODE,merge=1,delta=2
    26                           	psect	text8,local,class=CODE,merge=1,delta=2
    27                           	psect	text9,local,class=CODE,merge=1,delta=2
    28                           	psect	text10,local,class=CODE,merge=1,delta=2,group=1
    29                           	psect	text11,local,class=CODE,merge=1,delta=2,group=1
    30                           	psect	text12,local,class=CODE,merge=1,delta=2,group=1
    31                           	psect	text13,local,class=CODE,merge=1,delta=2,group=1
    32                           	psect	text14,local,class=CODE,merge=1,delta=2,group=1
    33                           	psect	text15,local,class=CODE,merge=1,delta=2
    34                           	psect	text16,local,class=CODE,merge=1,delta=2,group=1
    35                           	psect	text17,local,class=CODE,merge=1,delta=2
    36                           	psect	intentry,global,class=CODE,delta=2
    37                           	psect	idloc,global,abs,ovrld,class=IDLOC,space=5,delta=2,noexec
    38                           	psect	config,global,abs,ovrld,class=CONFIG,space=4,delta=2,noexec
    39                           	dabs	1,0x7E,2
    40     0000                     
    41                           ; Version 2.40
    42                           ; Generated 17/11/2021 GMT
    43                           ; 
    44                           ; Copyright © 2021, Microchip Technology Inc. and its subsidiaries ("Microchip")
    45                           ; All rights reserved.
    46                           ; 
    47                           ; This software is developed by Microchip Technology Inc. and its subsidiaries ("Microch
      +                          ip").
    48                           ; 
    49                           ; Redistribution and use in source and binary forms, with or without modification, are
    50                           ; permitted provided that the following conditions are met:
    51                           ; 
    52                           ;     1. Redistributions of source code must retain the above copyright notice, this lis
      +                          t of
    53                           ;        conditions and the following disclaimer.
    54                           ; 
    55                           ;     2. Redistributions in binary form must reproduce the above copyright notice, this 
      +                          list
    56                           ;        of conditions and the following disclaimer in the documentation and/or other
    57                           ;        materials provided with the distribution. Publication is not required when
    58                           ;        this file is used in an embedded application.
    59                           ; 
    60                           ;     3. Microchip's name may not be used to endorse or promote products derived from th
      +                          is
    61                           ;        software without specific prior written permission.
    62                           ; 
    63                           ; THIS SOFTWARE IS PROVIDED BY MICROCHIP "AS IS" AND ANY EXPRESS OR IMPLIED WARRANTIES,
    64                           ; INCLUDING, BUT NOT LIMITED TO, THE IMPLIED WARRANTIES OF MERCHANTABILITY AND FITNESS F
      +                          OR
    65                           ; PURPOSE ARE DISCLAIMED.  IN NO EVENT SHALL MICROCHIP BE LIABLE FOR ANY DIRECT, INDIREC
      +                          T,
    66                           ; INCIDENTAL, SPECIAL, EXEMPLARY, OR CONSEQUENTIAL DAMAGES (INCLUDING BUT NOT LIMITED TO
    67                           ; PROCUREMENT OF SUBSTITUTE GOODS OR SERVICES; LOSS OF USE, DATA OR PROFITS; OR BUSINESS
    68                           ; INTERRUPTION) HOWSOEVER CAUSED AND ON ANY THEORY OF LIABILITY, WHETHER IN CONTRACT, ST
      +                          RICT
    69                           ; LIABILITY, OR TORT (INCLUDING NEGLIGENCE OR OTHERWISE) ARISING IN ANY WAY OUT OF THE U
      +                          SE OF
    70                           ; THIS SOFTWARE, EVEN IF ADVISED OF THE POSSIBILITY OF SUCH DAMAGE.
    71                           ; 
    72                           ; 
    73                           ; Code-generator required, PIC16F877A Definitions
    74                           ; 
    75                           ; SFR Addresses
    76     0000                     	;# 
    77     0001                     	;# 
    78     0002                     	;# 
    79     0003                     	;# 
    80     0004                     	;# 
    81     0005                     	;# 
    82     0006                     	;# 
    83     0007                     	;# 
    84     0008                     	;# 
    85     0009                     	;# 
    86     000A                     	;# 
    87     000B                     	;# 
    88     000C                     	;# 
    89     000D                     	;# 
    90     000E                     	;# 
    91     000E                     	;# 
    92     000F                     	;# 
    93     0010                     	;# 
    94     0011                     	;# 
    95     0012                     	;# 
    96     0013                     	;# 
    97     0014                     	;# 
    98     0015                     	;# 
    99     0015                     	;# 
   100     0016                     	;# 
   101     0017                     	;# 
   102     0018                     	;# 
   103     0019                     	;# 
   104     001A                     	;# 
   105     001B                     	;# 
   106     001B                     	;# 
   107     001C                     	;# 
   108     001D                     	;# 
   109     001E                     	;# 
   110     001F                     	;# 
   111     0081                     	;# 
   112     0085                     	;# 
   113     0086                     	;# 
   114     0087                     	;# 
   115     0088                     	;# 
   116     0089                     	;# 
   117     008C                     	;# 
   118     008D                     	;# 
   119     008E                     	;# 
   120     0091                     	;# 
   121     0092                     	;# 
   122     0093                     	;# 
   123     0094                     	;# 
   124     0098                     	;# 
   125     0099                     	;# 
   126     009C                     	;# 
   127     009D                     	;# 
   128     009E                     	;# 
   129     009F                     	;# 
   130     010C                     	;# 
   131     010D                     	;# 
   132     010E                     	;# 
   133     010F                     	;# 
   134     018C                     	;# 
   135     018D                     	;# 
   136     0000                     	;# 
   137     0001                     	;# 
   138     0002                     	;# 
   139     0003                     	;# 
   140     0004                     	;# 
   141     0005                     	;# 
   142     0006                     	;# 
   143     0007                     	;# 
   144     0008                     	;# 
   145     0009                     	;# 
   146     000A                     	;# 
   147     000B                     	;# 
   148     000C                     	;# 
   149     000D                     	;# 
   150     000E                     	;# 
   151     000E                     	;# 
   152     000F                     	;# 
   153     0010                     	;# 
   154     0011                     	;# 
   155     0012                     	;# 
   156     0013                     	;# 
   157     0014                     	;# 
   158     0015                     	;# 
   159     0015                     	;# 
   160     0016                     	;# 
   161     0017                     	;# 
   162     0018                     	;# 
   163     0019                     	;# 
   164     001A                     	;# 
   165     001B                     	;# 
   166     001B                     	;# 
   167     001C                     	;# 
   168     001D                     	;# 
   169     001E                     	;# 
   170     001F                     	;# 
   171     0081                     	;# 
   172     0085                     	;# 
   173     0086                     	;# 
   174     0087                     	;# 
   175     0088                     	;# 
   176     0089                     	;# 
   177     008C                     	;# 
   178     008D                     	;# 
   179     008E                     	;# 
   180     0091                     	;# 
   181     0092                     	;# 
   182     0093                     	;# 
   183     0094                     	;# 
   184     0098                     	;# 
   185     0099                     	;# 
   186     009C                     	;# 
   187     009D                     	;# 
   188     009E                     	;# 
   189     009F                     	;# 
   190     010C                     	;# 
   191     010D                     	;# 
   192     010E                     	;# 
   193     010F                     	;# 
   194     018C                     	;# 
   195     018D                     	;# 
   196     0000                     	;# 
   197     0001                     	;# 
   198     0002                     	;# 
   199     0003                     	;# 
   200     0004                     	;# 
   201     0005                     	;# 
   202     0006                     	;# 
   203     0007                     	;# 
   204     0008                     	;# 
   205     0009                     	;# 
   206     000A                     	;# 
   207     000B                     	;# 
   208     000C                     	;# 
   209     000D                     	;# 
   210     000E                     	;# 
   211     000E                     	;# 
   212     000F                     	;# 
   213     0010                     	;# 
   214     0011                     	;# 
   215     0012                     	;# 
   216     0013                     	;# 
   217     0014                     	;# 
   218     0015                     	;# 
   219     0015                     	;# 
   220     0016                     	;# 
   221     0017                     	;# 
   222     0018                     	;# 
   223     0019                     	;# 
   224     001A                     	;# 
   225     001B                     	;# 
   226     001B                     	;# 
   227     001C                     	;# 
   228     001D                     	;# 
   229     001E                     	;# 
   230     001F                     	;# 
   231     0081                     	;# 
   232     0085                     	;# 
   233     0086                     	;# 
   234     0087                     	;# 
   235     0088                     	;# 
   236     0089                     	;# 
   237     008C                     	;# 
   238     008D                     	;# 
   239     008E                     	;# 
   240     0091                     	;# 
   241     0092                     	;# 
   242     0093                     	;# 
   243     0094                     	;# 
   244     0098                     	;# 
   245     0099                     	;# 
   246     009C                     	;# 
   247     009D                     	;# 
   248     009E                     	;# 
   249     009F                     	;# 
   250     010C                     	;# 
   251     010D                     	;# 
   252     010E                     	;# 
   253     010F                     	;# 
   254     018C                     	;# 
   255     018D                     	;# 
   256                           
   257                           	psect	idataBANK1
   258     0D70                     __pidataBANK1:
   259                           
   260                           ;initializer for _setpoint
   261     0D70  34FA               	retlw	250
   262     0D71  3400               	retlw	0
   263                           
   264                           ;initializer for _velatras
   265     0D72  3455               	retlw	85
   266     0D73  3400               	retlw	0
   267                           
   268                           ;initializer for _veladelante
   269     0D74  34AF               	retlw	175
   270     0D75  3400               	retlw	0
   271                           
   272                           ;initializer for _vel
   273     0D76  3464               	retlw	100
   274     0D77  3400               	retlw	0
   275                           
   276                           ;initializer for _freq
   277     0D78  34E8               	retlw	232
   278     0D79  3403               	retlw	3
   279     0D7A  3400               	retlw	0
   280     0D7B  3400               	retlw	0
   281                           
   282                           	psect	idataBANK3
   283     0D7C                     __pidataBANK3:
   284                           
   285                           ;initializer for _KI
   286     0D7C  340A               	retlw	10
   287     0D7D  34D7               	retlw	215
   288     0D7E  3423               	retlw	35
   289     0D7F  343B               	retlw	59
   290                           
   291                           ;initializer for _KD
   292     0D80  3493               	retlw	147
   293     0D81  3418               	retlw	24
   294     0D82  3494               	retlw	148
   295     0D83  3440               	retlw	64
   296                           
   297                           ;initializer for _KP
   298     0D84  348F               	retlw	143
   299     0D85  34C2               	retlw	194
   300     0D86  3475               	retlw	117
   301     0D87  343E               	retlw	62
   302                           
   303                           ;initializer for _TMR2PRESCALE
   304     0D88  3404               	retlw	4
   305     0D89  3400               	retlw	0
   306     0D8A  3400               	retlw	0
   307     0D8B  3400               	retlw	0
   308     001B                     _CCPR2L	set	27
   309     0015                     _CCPR1L	set	21
   310     0007                     _PORTCbits	set	7
   311     0009                     _PORTE	set	9
   312     0008                     _PORTD	set	8
   313     0007                     _PORTC	set	7
   314     0006                     _PORTB	set	6
   315     0005                     _PORTA	set	5
   316     0005                     _PORTAbits	set	5
   317     0008                     _PORTDbits	set	8
   318     000B                     _INTCONbits	set	11
   319     0006                     _PORTBbits	set	6
   320     00EA                     _CCP2M2	set	234
   321     00EB                     _CCP2M3	set	235
   322     0092                     _TMR2ON	set	146
   323     00BA                     _CCP1M2	set	186
   324     00BB                     _CCP1M3	set	187
   325     00EC                     _CCP2Y	set	236
   326     00ED                     _CCP2X	set	237
   327     00BC                     _CCP1Y	set	188
   328     00BD                     _CCP1X	set	189
   329     0092                     _PR2	set	146
   330     009F                     _ADCON1	set	159
   331     0089                     _TRISE	set	137
   332     0088                     _TRISD	set	136
   333     0087                     _TRISC	set	135
   334     0086                     _TRISB	set	134
   335     0085                     _TRISA	set	133
   336     0081                     _OPTION_REGbits	set	129
   337     0439                     _TRISC1	set	1081
   338     043A                     _TRISC2	set	1082
   339                           
   340                           	psect	cinit
   341     000F                     start_initialization:	
   342                           ; #config settings
   343                           
   344     000F                     __initialization:
   345                           
   346                           ; Initialize objects allocated to BANK3
   347     000F  1783               	bsf	3,7	;select IRP bank2
   348     0010  30A0               	movlw	low (__pdataBANK3+16)
   349     0011  00FD               	movwf	btemp+-1
   350     0012  300D               	movlw	high __pidataBANK3
   351     0013  00FE               	movwf	btemp
   352     0014  307C               	movlw	low __pidataBANK3
   353     0015  00FF               	movwf	btemp+1
   354     0016  3090               	movlw	low __pdataBANK3
   355     0017  0084               	movwf	4
   356     0018  120A  158A  2590  120A  118A  	fcall	init_ram0
   357                           
   358                           ; Initialize objects allocated to BANK1
   359     001D  1383               	bcf	3,7	;select IRP bank0
   360     001E  30EE               	movlw	low (__pdataBANK1+12)
   361     001F  00FD               	movwf	btemp+-1
   362     0020  300D               	movlw	high __pidataBANK1
   363     0021  00FE               	movwf	btemp
   364     0022  3070               	movlw	low __pidataBANK1
   365     0023  00FF               	movwf	btemp+1
   366     0024  30E2               	movlw	low __pdataBANK1
   367     0025  0084               	movwf	4
   368     0026  120A  158A  2590  120A  118A  	fcall	init_ram0
   369                           
   370                           ; Clear objects allocated to BANK3
   371     002B  1783               	bsf	3,7	;select IRP bank2
   372     002C  30A0               	movlw	low __pbssBANK3
   373     002D  0084               	movwf	4
   374     002E  30A8               	movlw	low (__pbssBANK3+8)
   375     002F  120A  158A  254A  120A  118A  	fcall	clear_ram0
   376                           
   377                           ; Clear objects allocated to BANK1
   378     0034  1383               	bcf	3,7	;select IRP bank0
   379     0035  30A0               	movlw	low __pbssBANK1
   380     0036  0084               	movwf	4
   381     0037  30D0               	movlw	low (__pbssBANK1+48)
   382     0038  120A  158A  254A  120A  118A  	fcall	clear_ram0
   383                           
   384                           ; Clear objects allocated to COMMON
   385     003D  01FA               	clrf	__pbssCOMMON& (0+127)
   386     003E  01FB               	clrf	(__pbssCOMMON+1)& (0+127)
   387     003F                     end_of_initialization:	
   388                           ;End of C runtime variable initialization code
   389                           
   390     003F                     __end_of__initialization:
   391     003F  0183               	clrf	3
   392     0040  120A  158A  2F85   	ljmp	_main	;jump to C main() function
   393                           
   394                           	psect	bssCOMMON
   395     007A                     __pbssCOMMON:
   396     007A                     _proporcional:
   397     007A                     	ds	2
   398                           
   399                           	psect	bssBANK1
   400     00A0                     __pbssBANK1:
   401     00A0                     _poslast:
   402     00A0                     	ds	4
   403     00A4                     _pos:
   404     00A4                     	ds	4
   405     00A8                     _sumap:
   406     00A8                     	ds	4
   407     00AC                     _last_prop:
   408     00AC                     	ds	2
   409     00AE                     _diferencial:
   410     00AE                     	ds	2
   411     00B0                     _derivativo:
   412     00B0                     	ds	2
   413     00B2                     _integral:
   414     00B2                     	ds	2
   415     00B4                     _m:
   416     00B4                     	ds	2
   417     00B6                     _error6:
   418     00B6                     	ds	2
   419     00B8                     _error5:
   420     00B8                     	ds	2
   421     00BA                     _error4:
   422     00BA                     	ds	2
   423     00BC                     _error3:
   424     00BC                     	ds	2
   425     00BE                     _error2:
   426     00BE                     	ds	2
   427     00C0                     _error1:
   428     00C0                     	ds	2
   429     00C2                     _y:
   430     00C2                     	ds	2
   431     00C4                     _duty:
   432     00C4                     	ds	2
   433     00C6                     _sensoresP:
   434     00C6                     	ds	10
   435                           
   436                           	psect	dataBANK1
   437     00E2                     __pdataBANK1:
   438     00E2                     _setpoint:
   439     00E2                     	ds	2
   440     00E4                     _velatras:
   441     00E4                     	ds	2
   442     00E6                     _veladelante:
   443     00E6                     	ds	2
   444     00E8                     _vel:
   445     00E8                     	ds	2
   446     00EA                     _freq:
   447     00EA                     	ds	4
   448                           
   449                           	psect	bssBANK3
   450     01A0                     __pbssBANK3:
   451     01A0                     _position:
   452     01A0                     	ds	4
   453     01A4                     _suma:
   454     01A4                     	ds	4
   455                           
   456                           	psect	dataBANK3
   457     0190                     __pdataBANK3:
   458     0190                     _KI:
   459     0190                     	ds	4
   460     0194                     _KD:
   461     0194                     	ds	4
   462     0198                     _KP:
   463     0198                     	ds	4
   464     019C                     _TMR2PRESCALE:
   465     019C                     	ds	4
   466                           
   467                           	psect	inittext
   468     0D8C                     init_fetch0:	
   469                           ;	Called with low address in FSR and high address in W
   470                           
   471     0D8C  087E               	movf	btemp,w
   472     0D8D  008A               	movwf	10
   473     0D8E  087F               	movf	btemp+1,w
   474     0D8F  0082               	movwf	2
   475     0D90                     init_ram0:	
   476                           ;Called with:
   477                           ;	high address of idata address in btemp 
   478                           ;	low address of idata address in btemp+1 
   479                           ;	low address of data in FSR
   480                           ;	high address + 1 of data in btemp-1
   481                           
   482     0D90  120A  158A  258C  120A  158A  	fcall	init_fetch0
   483     0D95  0080               	movwf	0
   484     0D96  0A84               	incf	4,f
   485     0D97  0804               	movf	4,w
   486     0D98  067D               	xorwf	btemp+-1,w
   487     0D99  1903               	btfsc	3,2
   488     0D9A  3400               	retlw	0
   489     0D9B  0AFF               	incf	btemp+1,f
   490     0D9C  1903               	btfsc	3,2
   491     0D9D  0AFE               	incf	btemp,f
   492     0D9E  2D90               	goto	init_ram0
   493                           
   494                           	psect	clrtext
   495     0D4A                     clear_ram0:	
   496                           ;	Called with FSR containing the base address, and
   497                           ;	W with the last address+1
   498                           
   499     0D4A  0064               	clrwdt	;clear the watchdog before getting into this loop
   500     0D4B                     clrloop0:
   501     0D4B  0180               	clrf	0	;clear RAM location pointed to by FSR
   502     0D4C  0A84               	incf	4,f	;increment pointer
   503     0D4D  0604               	xorwf	4,w	;XOR with final address
   504     0D4E  1903               	btfsc	3,2	;have we reached the end yet?
   505     0D4F  3400               	retlw	0	;all done for this memory range, return
   506     0D50  0604               	xorwf	4,w	;XOR again to restore value
   507     0D51  2D4B               	goto	clrloop0	;do the next byte
   508                           
   509                           	psect	cstackBANK3
   510     01A8                     __pcstackBANK3:
   511     01A8                     ??_main:
   512                           
   513                           ; 1 bytes @ 0x0
   514     01A8                     	ds	3
   515                           
   516                           	psect	cstackBANK1
   517     00D0                     __pcstackBANK1:
   518     00D0                     ?___fltol:
   519     00D0                     ___fltol@f1:	
   520                           ; 4 bytes @ 0x0
   521                           
   522                           
   523                           ; 4 bytes @ 0x0
   524     00D0                     	ds	4
   525     00D4                     ??___fltol:
   526                           
   527                           ; 1 bytes @ 0x4
   528     00D4                     	ds	4
   529     00D8                     ___fltol@sign1:
   530                           
   531                           ; 1 bytes @ 0x8
   532     00D8                     	ds	1
   533     00D9                     ___fltol@exp1:
   534                           
   535                           ; 1 bytes @ 0x9
   536     00D9                     	ds	1
   537     00DA                     ?_PWM1_Duty:
   538     00DA                     ?_PWM2_Duty:	
   539                           ; 2 bytes @ 0xA
   540                           
   541     00DA                     PWM1_Duty@duty:	
   542                           ; 2 bytes @ 0xA
   543                           
   544     00DA                     PWM2_Duty@duty:	
   545                           ; 2 bytes @ 0xA
   546                           
   547                           
   548                           ; 2 bytes @ 0xA
   549     00DA                     	ds	2
   550     00DC                     ??_PWM1_Duty:
   551     00DC                     ??_PWM2_Duty:	
   552                           ; 1 bytes @ 0xC
   553                           
   554                           
   555                           ; 1 bytes @ 0xC
   556     00DC                     	ds	2
   557     00DE                     ?_motores:
   558     00DE                     motores@VI:	
   559                           ; 1 bytes @ 0xE
   560                           
   561                           
   562                           ; 2 bytes @ 0xE
   563     00DE                     	ds	2
   564     00E0                     motores@VD:
   565                           
   566                           ; 2 bytes @ 0x10
   567     00E0                     	ds	2
   568                           
   569                           	psect	cstackCOMMON
   570     0070                     __pcstackCOMMON:
   571     0070                     ?_PWM_ST:
   572     0070                     ?_external:	
   573                           ; 1 bytes @ 0x0
   574                           
   575     0070                     ??_external:	
   576                           ; 1 bytes @ 0x0
   577                           
   578     0070                     ?_inicia:	
   579                           ; 1 bytes @ 0x0
   580                           
   581     0070                     ?_main:	
   582                           ; 1 bytes @ 0x0
   583                           
   584     0070                     ?_PWM1_Start:	
   585                           ; 1 bytes @ 0x0
   586                           
   587     0070                     ?_PWM2_Start:	
   588                           ; 1 bytes @ 0x0
   589                           
   590                           
   591                           ; 1 bytes @ 0x0
   592     0070                     	ds	2
   593     0072                     ??_inicia:
   594     0072                     ??_PWM1_Start:	
   595                           ; 1 bytes @ 0x2
   596                           
   597     0072                     ??_PWM2_Start:	
   598                           ; 1 bytes @ 0x2
   599                           
   600     0072                     ?__Umul8_16:	
   601                           ; 1 bytes @ 0x2
   602                           
   603     0072                     ?___aldiv:	
   604                           ; 2 bytes @ 0x2
   605                           
   606     0072                     __Umul8_16@multiplicand:	
   607                           ; 4 bytes @ 0x2
   608                           
   609     0072                     ___aldiv@divisor:	
   610                           ; 1 bytes @ 0x2
   611                           
   612                           
   613                           ; 4 bytes @ 0x2
   614     0072                     	ds	2
   615     0074                     ??__Umul8_16:
   616                           
   617                           ; 1 bytes @ 0x4
   618     0074                     	ds	2
   619     0076                     ___aldiv@dividend:
   620                           
   621                           ; 4 bytes @ 0x6
   622     0076                     	ds	4
   623     007A                     ??_PWM_ST:
   624     007A                     ??_motores:	
   625                           ; 1 bytes @ 0xA
   626                           
   627                           
   628                           	psect	cstackBANK0
   629     0020                     __pcstackBANK0:	
   630                           ; 1 bytes @ 0xA
   631                           
   632     0020                     ??___aldiv:
   633     0020                     __Umul8_16@product:	
   634                           ; 1 bytes @ 0x0
   635                           
   636                           
   637                           ; 2 bytes @ 0x0
   638     0020                     	ds	1
   639     0021                     ___aldiv@counter:
   640                           
   641                           ; 1 bytes @ 0x1
   642     0021                     	ds	1
   643     0022                     ___aldiv@sign:
   644     0022                     __Umul8_16@word_mpld:	
   645                           ; 1 bytes @ 0x2
   646                           
   647                           
   648                           ; 2 bytes @ 0x2
   649     0022                     	ds	1
   650     0023                     ___aldiv@quotient:
   651                           
   652                           ; 4 bytes @ 0x3
   653     0023                     	ds	1
   654     0024                     __Umul8_16@multiplier:
   655                           
   656                           ; 1 bytes @ 0x4
   657     0024                     	ds	3
   658     0027                     ?_PWM_Max_Duty:
   659     0027                     ?_PWM1_Init:	
   660                           ; 2 bytes @ 0x7
   661                           
   662     0027                     ?_PWM2_Init:	
   663                           ; 2 bytes @ 0x7
   664                           
   665     0027                     PWM1_Init@freq:	
   666                           ; 2 bytes @ 0x7
   667                           
   668     0027                     PWM2_Init@freq:	
   669                           ; 4 bytes @ 0x7
   670                           
   671                           
   672                           ; 4 bytes @ 0x7
   673     0027                     	ds	2
   674     0029                     ??_PWM_Max_Duty:
   675                           
   676                           ; 1 bytes @ 0x9
   677     0029                     	ds	2
   678     002B                     ??_PWM1_Init:
   679     002B                     ??_PWM2_Init:	
   680                           ; 1 bytes @ 0xB
   681                           
   682                           
   683                           ; 1 bytes @ 0xB
   684     002B                     	ds	2
   685     002D                     ?___xxtofl:
   686     002D                     ___xxtofl@val:	
   687                           ; 4 bytes @ 0xD
   688                           
   689                           
   690                           ; 4 bytes @ 0xD
   691     002D                     	ds	4
   692     0031                     ??___xxtofl:
   693                           
   694                           ; 1 bytes @ 0x11
   695     0031                     	ds	4
   696     0035                     ___xxtofl@sign:
   697                           
   698                           ; 1 bytes @ 0x15
   699     0035                     	ds	1
   700     0036                     ___xxtofl@exp:
   701                           
   702                           ; 1 bytes @ 0x16
   703     0036                     	ds	1
   704     0037                     ___xxtofl@arg:
   705                           
   706                           ; 4 bytes @ 0x17
   707     0037                     	ds	4
   708     003B                     ?___fldiv:
   709     003B                     ___fldiv@a:	
   710                           ; 4 bytes @ 0x1B
   711                           
   712                           
   713                           ; 4 bytes @ 0x1B
   714     003B                     	ds	4
   715     003F                     ___fldiv@b:
   716                           
   717                           ; 4 bytes @ 0x1F
   718     003F                     	ds	4
   719     0043                     ??___fldiv:
   720                           
   721                           ; 1 bytes @ 0x23
   722     0043                     	ds	5
   723     0048                     ___fldiv@rem:
   724                           
   725                           ; 4 bytes @ 0x28
   726     0048                     	ds	4
   727     004C                     ___fldiv@sign:
   728                           
   729                           ; 1 bytes @ 0x2C
   730     004C                     	ds	1
   731     004D                     ___fldiv@new_exp:
   732                           
   733                           ; 2 bytes @ 0x2D
   734     004D                     	ds	2
   735     004F                     ___fldiv@grs:
   736                           
   737                           ; 4 bytes @ 0x2F
   738     004F                     	ds	4
   739     0053                     ___fldiv@bexp:
   740                           
   741                           ; 1 bytes @ 0x33
   742     0053                     	ds	1
   743     0054                     ___fldiv@aexp:
   744                           
   745                           ; 1 bytes @ 0x34
   746     0054                     	ds	1
   747     0055                     ?___flmul:
   748     0055                     ___flmul@b:	
   749                           ; 4 bytes @ 0x35
   750                           
   751                           
   752                           ; 4 bytes @ 0x35
   753     0055                     	ds	4
   754     0059                     ___flmul@a:
   755                           
   756                           ; 4 bytes @ 0x39
   757     0059                     	ds	4
   758     005D                     ??___flmul:
   759                           
   760                           ; 1 bytes @ 0x3D
   761     005D                     	ds	5
   762     0062                     ___flmul@sign:
   763                           
   764                           ; 1 bytes @ 0x42
   765     0062                     	ds	1
   766     0063                     ___flmul@aexp:
   767                           
   768                           ; 1 bytes @ 0x43
   769     0063                     	ds	1
   770     0064                     ___flmul@grs:
   771                           
   772                           ; 4 bytes @ 0x44
   773     0064                     	ds	4
   774     0068                     ___flmul@bexp:
   775                           
   776                           ; 1 bytes @ 0x48
   777     0068                     	ds	1
   778     0069                     ___flmul@prod:
   779                           
   780                           ; 4 bytes @ 0x49
   781     0069                     	ds	4
   782     006D                     ___flmul@temp:
   783                           
   784                           ; 2 bytes @ 0x4D
   785     006D                     	ds	2
   786                           
   787                           	psect	maintext
   788     0F85                     __pmaintext:	
   789 ;;
   790 ;;Main: autosize = 0, tempsize = 3, incstack = 0, save=0
   791 ;;
   792 ;; *************** function _main *****************
   793 ;; Defined at:
   794 ;;		line 248 in file "WIPLOZ.c"
   795 ;; Parameters:    Size  Location     Type
   796 ;;		None
   797 ;; Auto vars:     Size  Location     Type
   798 ;;		None
   799 ;; Return value:  Size  Location     Type
   800 ;;                  1    wreg      void 
   801 ;; Registers used:
   802 ;;		wreg, status,2, status,0, btemp+1, pclath, cstack
   803 ;; Tracked objects:
   804 ;;		On entry : B00/0
   805 ;;		On exit  : 0/0
   806 ;;		Unchanged: 0/0
   807 ;; Data sizes:     COMMON   BANK0   BANK1   BANK3   BANK2
   808 ;;      Params:         0       0       0       0       0
   809 ;;      Locals:         0       0       0       0       0
   810 ;;      Temps:          0       0       0       3       0
   811 ;;      Totals:         0       0       0       3       0
   812 ;;Total ram usage:        3 bytes
   813 ;; Hardware stack levels required when called: 5
   814 ;; This function calls:
   815 ;;		_PWM1_Duty
   816 ;;		_PWM2_Duty
   817 ;;		_PWM_ST
   818 ;;		_inicia
   819 ;;		_motores
   820 ;; This function is called by:
   821 ;;		Startup code after reset
   822 ;; This function uses a non-reentrant model
   823 ;;
   824                           
   825     0F85                     _main:	
   826                           ;psect for function _main
   827                           
   828     0F85                     l2570:	
   829                           ;incstack = 0
   830                           ; Regs used in _main: [wreg+status,2+status,0+btemp+1+pclath+cstack]
   831                           
   832                           
   833                           ;WIPLOZ.c: 250: inicia();
   834     0F85  120A  158A  259F  120A  158A  	fcall	_inicia
   835     0F8A                     l2572:
   836                           
   837                           ;WIPLOZ.c: 251: PWM_ST();
   838     0F8A  120A  158A  268D  120A  158A  	fcall	_PWM_ST
   839     0F8F                     l2574:
   840                           
   841                           ;WIPLOZ.c: 252: PWM2_Duty(300);
   842     0F8F  302C               	movlw	44
   843     0F90  1683               	bsf	3,5	;RP0=1, select bank1
   844     0F91  1303               	bcf	3,6	;RP1=0, select bank1
   845     0F92  00DA               	movwf	PWM2_Duty@duty^(0+128)
   846     0F93  3001               	movlw	1
   847     0F94  00DB               	movwf	(PWM2_Duty@duty^(0+128)+1)
   848     0F95  120A  118A  2615  120A  158A  	fcall	_PWM2_Duty
   849     0F9A                     l2576:
   850                           
   851                           ;WIPLOZ.c: 253: PWM1_Duty(300);
   852     0F9A  302C               	movlw	44
   853     0F9B  1683               	bsf	3,5	;RP0=1, select bank1
   854     0F9C  1303               	bcf	3,6	;RP1=0, select bank1
   855     0F9D  00DA               	movwf	PWM1_Duty@duty^(0+128)
   856     0F9E  3001               	movlw	1
   857     0F9F  00DB               	movwf	(PWM1_Duty@duty^(0+128)+1)
   858     0FA0  120A  118A  26BB  120A  158A  	fcall	_PWM1_Duty
   859     0FA5                     l2578:
   860                           
   861                           ;WIPLOZ.c: 255: motores(300,400);
   862     0FA5  302C               	movlw	44
   863     0FA6  1683               	bsf	3,5	;RP0=1, select bank1
   864     0FA7  1303               	bcf	3,6	;RP1=0, select bank1
   865     0FA8  00DE               	movwf	motores@VI^(0+128)
   866     0FA9  3001               	movlw	1
   867     0FAA  00DF               	movwf	(motores@VI^(0+128)+1)
   868     0FAB  3090               	movlw	144
   869     0FAC  00E0               	movwf	motores@VD^(0+128)
   870     0FAD  3001               	movlw	1
   871     0FAE  00E1               	movwf	(motores@VD^(0+128)+1)
   872     0FAF  120A  158A  26CA  120A  158A  	fcall	_motores
   873     0FB4                     l2580:
   874                           
   875                           ;WIPLOZ.c: 256: _delay((unsigned long)((3000)*(4000000/4000.0)));
   876     0FB4  3010               	movlw	16
   877     0FB5  1683               	bsf	3,5	;RP0=1, select bank3
   878     0FB6  1703               	bsf	3,6	;RP1=1, select bank3
   879     0FB7  00AA               	movwf	(??_main^(0+384)+2)
   880     0FB8  3039               	movlw	57
   881     0FB9  00A9               	movwf	(??_main^(0+384)+1)
   882     0FBA  300D               	movlw	13
   883     0FBB  00A8               	movwf	??_main^(0+384)
   884     0FBC                     u4077:
   885     0FBC  0BA8               	decfsz	??_main^(0+384),f
   886     0FBD  2FBC               	goto	u4077
   887     0FBE  0BA9               	decfsz	(??_main^(0+384)+1),f
   888     0FBF  2FBC               	goto	u4077
   889     0FC0  0BAA               	decfsz	(??_main^(0+384)+2),f
   890     0FC1  2FBC               	goto	u4077
   891     0FC2                     l2582:
   892                           
   893                           ;WIPLOZ.c: 257: motores(-500,600);
   894     0FC2  300C               	movlw	12
   895     0FC3  1683               	bsf	3,5	;RP0=1, select bank1
   896     0FC4  1303               	bcf	3,6	;RP1=0, select bank1
   897     0FC5  00DE               	movwf	motores@VI^(0+128)
   898     0FC6  30FE               	movlw	254
   899     0FC7  00DF               	movwf	(motores@VI^(0+128)+1)
   900     0FC8  3058               	movlw	88
   901     0FC9  00E0               	movwf	motores@VD^(0+128)
   902     0FCA  3002               	movlw	2
   903     0FCB  00E1               	movwf	(motores@VD^(0+128)+1)
   904     0FCC  120A  158A  26CA  120A  158A  	fcall	_motores
   905     0FD1                     l2584:
   906                           
   907                           ;WIPLOZ.c: 258: _delay((unsigned long)((3000)*(4000000/4000.0)));
   908     0FD1  3010               	movlw	16
   909     0FD2  1683               	bsf	3,5	;RP0=1, select bank3
   910     0FD3  1703               	bsf	3,6	;RP1=1, select bank3
   911     0FD4  00AA               	movwf	(??_main^(0+384)+2)
   912     0FD5  3039               	movlw	57
   913     0FD6  00A9               	movwf	(??_main^(0+384)+1)
   914     0FD7  300D               	movlw	13
   915     0FD8  00A8               	movwf	??_main^(0+384)
   916     0FD9                     u4087:
   917     0FD9  0BA8               	decfsz	??_main^(0+384),f
   918     0FDA  2FD9               	goto	u4087
   919     0FDB  0BA9               	decfsz	(??_main^(0+384)+1),f
   920     0FDC  2FD9               	goto	u4087
   921     0FDD  0BAA               	decfsz	(??_main^(0+384)+2),f
   922     0FDE  2FD9               	goto	u4087
   923     0FDF                     l2586:
   924                           
   925                           ;WIPLOZ.c: 259: motores(1000,-1000);
   926     0FDF  30E8               	movlw	232
   927     0FE0  1683               	bsf	3,5	;RP0=1, select bank1
   928     0FE1  1303               	bcf	3,6	;RP1=0, select bank1
   929     0FE2  00DE               	movwf	motores@VI^(0+128)
   930     0FE3  3003               	movlw	3
   931     0FE4  00DF               	movwf	(motores@VI^(0+128)+1)
   932     0FE5  3018               	movlw	24
   933     0FE6  00E0               	movwf	motores@VD^(0+128)
   934     0FE7  30FC               	movlw	252
   935     0FE8  00E1               	movwf	(motores@VD^(0+128)+1)
   936     0FE9  120A  158A  26CA  120A  158A  	fcall	_motores
   937     0FEE                     l2588:
   938                           
   939                           ;WIPLOZ.c: 260: _delay((unsigned long)((3000)*(4000000/4000.0)));
   940     0FEE  3010               	movlw	16
   941     0FEF  1683               	bsf	3,5	;RP0=1, select bank3
   942     0FF0  1703               	bsf	3,6	;RP1=1, select bank3
   943     0FF1  00AA               	movwf	(??_main^(0+384)+2)
   944     0FF2  3039               	movlw	57
   945     0FF3  00A9               	movwf	(??_main^(0+384)+1)
   946     0FF4  300D               	movlw	13
   947     0FF5  00A8               	movwf	??_main^(0+384)
   948     0FF6                     u4097:
   949     0FF6  0BA8               	decfsz	??_main^(0+384),f
   950     0FF7  2FF6               	goto	u4097
   951     0FF8  0BA9               	decfsz	(??_main^(0+384)+1),f
   952     0FF9  2FF6               	goto	u4097
   953     0FFA  0BAA               	decfsz	(??_main^(0+384)+2),f
   954     0FFB  2FF6               	goto	u4097
   955     0FFC  2FA5               	goto	l2578
   956     0FFD  120A  118A  280C   	ljmp	start
   957     1000                     __end_of_main:
   958                           
   959                           	psect	text1
   960     0ECA                     __ptext1:	
   961 ;; *************** function _motores *****************
   962 ;; Defined at:
   963 ;;		line 95 in file "WIPLOZ.c"
   964 ;; Parameters:    Size  Location     Type
   965 ;;  VI              2   14[BANK1 ] int 
   966 ;;  VD              2   16[BANK1 ] int 
   967 ;; Auto vars:     Size  Location     Type
   968 ;;		None
   969 ;; Return value:  Size  Location     Type
   970 ;;                  1    wreg      void 
   971 ;; Registers used:
   972 ;;		wreg, status,2, status,0, btemp+1, pclath, cstack
   973 ;; Tracked objects:
   974 ;;		On entry : 0/0
   975 ;;		On exit  : 0/0
   976 ;;		Unchanged: 0/0
   977 ;; Data sizes:     COMMON   BANK0   BANK1   BANK3   BANK2
   978 ;;      Params:         0       0       4       0       0
   979 ;;      Locals:         0       0       0       0       0
   980 ;;      Temps:          0       0       0       0       0
   981 ;;      Totals:         0       0       4       0       0
   982 ;;Total ram usage:        4 bytes
   983 ;; Hardware stack levels used: 1
   984 ;; Hardware stack levels required when called: 4
   985 ;; This function calls:
   986 ;;		_PWM1_Duty
   987 ;;		_PWM2_Duty
   988 ;; This function is called by:
   989 ;;		_main
   990 ;;		_PID
   991 ;;		_Frenos
   992 ;; This function uses a non-reentrant model
   993 ;;
   994                           
   995     0ECA                     _motores:	
   996                           ;psect for function _motores
   997                           
   998     0ECA                     l2480:	
   999                           ;incstack = 0
  1000                           ; Regs used in _motores: [wreg+status,2+status,0+btemp+1+pclath+cstack]
  1001                           
  1002                           
  1003                           ;WIPLOZ.c: 97: if(VI>=0){
  1004     0ECA  1683               	bsf	3,5	;RP0=1, select bank1
  1005     0ECB  1303               	bcf	3,6	;RP1=0, select bank1
  1006     0ECC  1BDF               	btfsc	(motores@VI+1)^(0+128),7
  1007     0ECD  2ECF               	goto	u3961
  1008     0ECE  2ED0               	goto	u3960
  1009     0ECF                     u3961:
  1010     0ECF  2ED5               	goto	l103
  1011     0ED0                     u3960:
  1012     0ED0                     l2482:
  1013                           
  1014                           ;WIPLOZ.c: 98: PORTBbits.RB2 = 1;
  1015     0ED0  1283               	bcf	3,5	;RP0=0, select bank0
  1016     0ED1  1303               	bcf	3,6	;RP1=0, select bank0
  1017     0ED2  1506               	bsf	6,2	;volatile
  1018                           
  1019                           ;WIPLOZ.c: 99: PORTBbits.RB3 = 0;
  1020     0ED3  1186               	bcf	6,3	;volatile
  1021                           
  1022                           ;WIPLOZ.c: 100: }
  1023     0ED4  2EE0               	goto	l2486
  1024     0ED5                     l103:
  1025                           
  1026                           ;WIPLOZ.c: 101: else{;WIPLOZ.c: 102: PORTBbits.RB2 = 0;
  1027     0ED5  1283               	bcf	3,5	;RP0=0, select bank0
  1028     0ED6  1303               	bcf	3,6	;RP1=0, select bank0
  1029     0ED7  1106               	bcf	6,2	;volatile
  1030                           
  1031                           ;WIPLOZ.c: 103: PORTBbits.RB3 = 1;
  1032     0ED8  1586               	bsf	6,3	;volatile
  1033     0ED9                     l2484:
  1034                           
  1035                           ;WIPLOZ.c: 104: VI=VI*(-1);
  1036     0ED9  1683               	bsf	3,5	;RP0=1, select bank1
  1037     0EDA  1303               	bcf	3,6	;RP1=0, select bank1
  1038     0EDB  09DE               	comf	motores@VI^(0+128),f
  1039     0EDC  09DF               	comf	(motores@VI+1)^(0+128),f
  1040     0EDD  0ADE               	incf	motores@VI^(0+128),f
  1041     0EDE  1903               	skipnz
  1042     0EDF  0ADF               	incf	(motores@VI+1)^(0+128),f
  1043     0EE0                     l2486:
  1044                           
  1045                           ;WIPLOZ.c: 105: };WIPLOZ.c: 106: PWM1_Duty(VI);
  1046     0EE0  1683               	bsf	3,5	;RP0=1, select bank1
  1047     0EE1  1303               	bcf	3,6	;RP1=0, select bank1
  1048     0EE2  085F               	movf	(motores@VI+1)^(0+128),w
  1049     0EE3  00DB               	movwf	(PWM1_Duty@duty+1)^(0+128)
  1050     0EE4  085E               	movf	motores@VI^(0+128),w
  1051     0EE5  00DA               	movwf	PWM1_Duty@duty^(0+128)
  1052     0EE6  120A  118A  26BB  120A  158A  	fcall	_PWM1_Duty
  1053     0EEB                     l2488:
  1054                           
  1055                           ;WIPLOZ.c: 109: if(VD>=0){
  1056     0EEB  1683               	bsf	3,5	;RP0=1, select bank1
  1057     0EEC  1303               	bcf	3,6	;RP1=0, select bank1
  1058     0EED  1BE1               	btfsc	(motores@VD+1)^(0+128),7
  1059     0EEE  2EF0               	goto	u3971
  1060     0EEF  2EF1               	goto	u3970
  1061     0EF0                     u3971:
  1062     0EF0  2EF6               	goto	l105
  1063     0EF1                     u3970:
  1064     0EF1                     l2490:
  1065                           
  1066                           ;WIPLOZ.c: 110: PORTBbits.RB4 = 1;
  1067     0EF1  1283               	bcf	3,5	;RP0=0, select bank0
  1068     0EF2  1303               	bcf	3,6	;RP1=0, select bank0
  1069     0EF3  1606               	bsf	6,4	;volatile
  1070                           
  1071                           ;WIPLOZ.c: 111: PORTBbits.RB5 = 0;
  1072     0EF4  1286               	bcf	6,5	;volatile
  1073                           
  1074                           ;WIPLOZ.c: 112: }
  1075     0EF5  2F01               	goto	l2494
  1076     0EF6                     l105:
  1077                           
  1078                           ;WIPLOZ.c: 113: else{;WIPLOZ.c: 114: PORTBbits.RB4 = 0;
  1079     0EF6  1283               	bcf	3,5	;RP0=0, select bank0
  1080     0EF7  1303               	bcf	3,6	;RP1=0, select bank0
  1081     0EF8  1206               	bcf	6,4	;volatile
  1082                           
  1083                           ;WIPLOZ.c: 115: PORTBbits.RB5 = 1;
  1084     0EF9  1686               	bsf	6,5	;volatile
  1085     0EFA                     l2492:
  1086                           
  1087                           ;WIPLOZ.c: 116: VD=VD*(-1);
  1088     0EFA  1683               	bsf	3,5	;RP0=1, select bank1
  1089     0EFB  1303               	bcf	3,6	;RP1=0, select bank1
  1090     0EFC  09E0               	comf	motores@VD^(0+128),f
  1091     0EFD  09E1               	comf	(motores@VD+1)^(0+128),f
  1092     0EFE  0AE0               	incf	motores@VD^(0+128),f
  1093     0EFF  1903               	skipnz
  1094     0F00  0AE1               	incf	(motores@VD+1)^(0+128),f
  1095     0F01                     l2494:
  1096                           
  1097                           ;WIPLOZ.c: 117: };WIPLOZ.c: 118: PWM2_Duty(VD);
  1098     0F01  1683               	bsf	3,5	;RP0=1, select bank1
  1099     0F02  1303               	bcf	3,6	;RP1=0, select bank1
  1100     0F03  0861               	movf	(motores@VD+1)^(0+128),w
  1101     0F04  00DB               	movwf	(PWM2_Duty@duty+1)^(0+128)
  1102     0F05  0860               	movf	motores@VD^(0+128),w
  1103     0F06  00DA               	movwf	PWM2_Duty@duty^(0+128)
  1104     0F07  120A  118A  2615  120A  158A  	fcall	_PWM2_Duty
  1105     0F0C                     l107:
  1106     0F0C  0008               	return
  1107     0F0D                     __end_of_motores:
  1108                           
  1109                           	psect	text2
  1110     0D9F                     __ptext2:	
  1111 ;; *************** function _inicia *****************
  1112 ;; Defined at:
  1113 ;;		line 212 in file "WIPLOZ.c"
  1114 ;; Parameters:    Size  Location     Type
  1115 ;;		None
  1116 ;; Auto vars:     Size  Location     Type
  1117 ;;		None
  1118 ;; Return value:  Size  Location     Type
  1119 ;;                  1    wreg      void 
  1120 ;; Registers used:
  1121 ;;		wreg, status,2
  1122 ;; Tracked objects:
  1123 ;;		On entry : 0/0
  1124 ;;		On exit  : 0/0
  1125 ;;		Unchanged: 0/0
  1126 ;; Data sizes:     COMMON   BANK0   BANK1   BANK3   BANK2
  1127 ;;      Params:         0       0       0       0       0
  1128 ;;      Locals:         0       0       0       0       0
  1129 ;;      Temps:          0       0       0       0       0
  1130 ;;      Totals:         0       0       0       0       0
  1131 ;;Total ram usage:        0 bytes
  1132 ;; Hardware stack levels used: 1
  1133 ;; Hardware stack levels required when called: 1
  1134 ;; This function calls:
  1135 ;;		Nothing
  1136 ;; This function is called by:
  1137 ;;		_main
  1138 ;; This function uses a non-reentrant model
  1139 ;;
  1140                           
  1141     0D9F                     _inicia:	
  1142                           ;psect for function _inicia
  1143                           
  1144     0D9F                     l1284:	
  1145                           ;incstack = 0
  1146                           ; Regs used in _inicia: [wreg+status,2]
  1147                           
  1148                           
  1149                           ;WIPLOZ.c: 215: INTCONbits.GIE = 1;
  1150     0D9F  178B               	bsf	11,7	;volatile
  1151                           
  1152                           ;WIPLOZ.c: 216: INTCONbits.PEIE = 1;
  1153     0DA0  170B               	bsf	11,6	;volatile
  1154                           
  1155                           ;WIPLOZ.c: 217: INTCONbits.INTE = 1;
  1156     0DA1  160B               	bsf	11,4	;volatile
  1157                           
  1158                           ;WIPLOZ.c: 221: OPTION_REGbits.INTEDG = 1;
  1159     0DA2  1683               	bsf	3,5	;RP0=1, select bank1
  1160     0DA3  1303               	bcf	3,6	;RP1=0, select bank1
  1161     0DA4  1701               	bsf	1,6	;volatile
  1162     0DA5                     l1286:
  1163                           
  1164                           ;WIPLOZ.c: 227: TRISA=0b001111;
  1165     0DA5  300F               	movlw	15
  1166     0DA6  0085               	movwf	5	;volatile
  1167                           
  1168                           ;WIPLOZ.c: 228: TRISB=0b00000011;
  1169     0DA7  3003               	movlw	3
  1170     0DA8  0086               	movwf	6	;volatile
  1171                           
  1172                           ;WIPLOZ.c: 229: TRISC=0b10010000;
  1173     0DA9  3090               	movlw	144
  1174     0DAA  0087               	movwf	7	;volatile
  1175                           
  1176                           ;WIPLOZ.c: 230: TRISD=0b11111111;
  1177     0DAB  30FF               	movlw	255
  1178     0DAC  0088               	movwf	8	;volatile
  1179     0DAD                     l1288:
  1180                           
  1181                           ;WIPLOZ.c: 231: TRISE=0b000;
  1182     0DAD  0189               	clrf	9	;volatile
  1183     0DAE                     l1290:
  1184                           
  1185                           ;WIPLOZ.c: 234: ADCON1= 0x06;
  1186     0DAE  3006               	movlw	6
  1187     0DAF  009F               	movwf	31	;volatile
  1188                           
  1189                           ;WIPLOZ.c: 236: PORTA=0b000000;
  1190     0DB0  1283               	bcf	3,5	;RP0=0, select bank0
  1191     0DB1  1303               	bcf	3,6	;RP1=0, select bank0
  1192     0DB2  0185               	clrf	5	;volatile
  1193                           
  1194                           ;WIPLOZ.c: 237: PORTB=0x00;
  1195     0DB3  0186               	clrf	6	;volatile
  1196                           
  1197                           ;WIPLOZ.c: 238: PORTC=0x00;
  1198     0DB4  0187               	clrf	7	;volatile
  1199                           
  1200                           ;WIPLOZ.c: 239: PORTD=0x00;
  1201     0DB5  0188               	clrf	8	;volatile
  1202                           
  1203                           ;WIPLOZ.c: 240: PORTE=0b000;
  1204     0DB6  0189               	clrf	9	;volatile
  1205     0DB7                     l1292:
  1206                           
  1207                           ;WIPLOZ.c: 243: PORTCbits.RC0=1;
  1208     0DB7  1407               	bsf	7,0	;volatile
  1209     0DB8                     l154:
  1210     0DB8  0008               	return
  1211     0DB9                     __end_of_inicia:
  1212                           
  1213                           	psect	text3
  1214     0E8D                     __ptext3:	
  1215 ;; *************** function _PWM_ST *****************
  1216 ;; Defined at:
  1217 ;;		line 100 in file "PWM.c"
  1218 ;; Parameters:    Size  Location     Type
  1219 ;;		None
  1220 ;; Auto vars:     Size  Location     Type
  1221 ;;		None
  1222 ;; Return value:  Size  Location     Type
  1223 ;;                  1    wreg      void 
  1224 ;; Registers used:
  1225 ;;		wreg, status,2, status,0, btemp+1, pclath, cstack
  1226 ;; Tracked objects:
  1227 ;;		On entry : 0/0
  1228 ;;		On exit  : 0/0
  1229 ;;		Unchanged: 0/0
  1230 ;; Data sizes:     COMMON   BANK0   BANK1   BANK3   BANK2
  1231 ;;      Params:         0       0       0       0       0
  1232 ;;      Locals:         0       0       0       0       0
  1233 ;;      Temps:          0       0       0       0       0
  1234 ;;      Totals:         0       0       0       0       0
  1235 ;;Total ram usage:        0 bytes
  1236 ;; Hardware stack levels used: 1
  1237 ;; Hardware stack levels required when called: 4
  1238 ;; This function calls:
  1239 ;;		_PWM1_Duty
  1240 ;;		_PWM1_Init
  1241 ;;		_PWM1_Start
  1242 ;;		_PWM2_Duty
  1243 ;;		_PWM2_Init
  1244 ;;		_PWM2_Start
  1245 ;; This function is called by:
  1246 ;;		_main
  1247 ;; This function uses a non-reentrant model
  1248 ;;
  1249                           
  1250     0E8D                     _PWM_ST:	
  1251                           ;psect for function _PWM_ST
  1252                           
  1253     0E8D                     l2496:	
  1254                           ;incstack = 0
  1255                           ; Regs used in _PWM_ST: [wreg+status,2+status,0+btemp+1+pclath+cstack]
  1256                           
  1257                           
  1258                           ;PWM.c: 101: PWM1_Init(4000);
  1259     0E8D  3000               	movlw	0
  1260     0E8E  1283               	bcf	3,5	;RP0=0, select bank0
  1261     0E8F  1303               	bcf	3,6	;RP1=0, select bank0
  1262     0E90  00AA               	movwf	PWM1_Init@freq+3
  1263     0E91  3000               	movlw	0
  1264     0E92  00A9               	movwf	PWM1_Init@freq+2
  1265     0E93  300F               	movlw	15
  1266     0E94  00A8               	movwf	PWM1_Init@freq+1
  1267     0E95  30A0               	movlw	160
  1268     0E96  00A7               	movwf	PWM1_Init@freq
  1269     0E97  120A  158A  25E2  120A  158A  	fcall	_PWM1_Init
  1270                           
  1271                           ;PWM.c: 102: PWM2_Init(4000);
  1272     0E9C  3000               	movlw	0
  1273     0E9D  1283               	bcf	3,5	;RP0=0, select bank0
  1274     0E9E  1303               	bcf	3,6	;RP1=0, select bank0
  1275     0E9F  00AA               	movwf	PWM2_Init@freq+3
  1276     0EA0  3000               	movlw	0
  1277     0EA1  00A9               	movwf	PWM2_Init@freq+2
  1278     0EA2  300F               	movlw	15
  1279     0EA3  00A8               	movwf	PWM2_Init@freq+1
  1280     0EA4  30A0               	movlw	160
  1281     0EA5  00A7               	movwf	PWM2_Init@freq
  1282     0EA6  120A  158A  2619  120A  158A  	fcall	_PWM2_Init
  1283     0EAB                     l2498:
  1284                           
  1285                           ;PWM.c: 103: PWM1_Duty(0);
  1286     0EAB  3000               	movlw	0
  1287     0EAC  1683               	bsf	3,5	;RP0=1, select bank1
  1288     0EAD  1303               	bcf	3,6	;RP1=0, select bank1
  1289     0EAE  00DA               	movwf	PWM1_Duty@duty^(0+128)
  1290     0EAF  00DB               	movwf	(PWM1_Duty@duty+1)^(0+128)
  1291     0EB0  120A  118A  26BB  120A  158A  	fcall	_PWM1_Duty
  1292     0EB5                     l2500:
  1293                           
  1294                           ;PWM.c: 104: PWM2_Duty(0);
  1295     0EB5  3000               	movlw	0
  1296     0EB6  1683               	bsf	3,5	;RP0=1, select bank1
  1297     0EB7  1303               	bcf	3,6	;RP1=0, select bank1
  1298     0EB8  00DA               	movwf	PWM2_Duty@duty^(0+128)
  1299     0EB9  00DB               	movwf	(PWM2_Duty@duty+1)^(0+128)
  1300     0EBA  120A  118A  2615  120A  158A  	fcall	_PWM2_Duty
  1301     0EBF                     l2502:
  1302                           
  1303                           ;PWM.c: 105: PWM1_Start();
  1304     0EBF  120A  158A  2552  120A  158A  	fcall	_PWM1_Start
  1305     0EC4                     l2504:
  1306                           
  1307                           ;PWM.c: 106: PWM2_Start();
  1308     0EC4  120A  158A  255B  120A  158A  	fcall	_PWM2_Start
  1309     0EC9                     l228:
  1310     0EC9  0008               	return
  1311     0ECA                     __end_of_PWM_ST:
  1312                           
  1313                           	psect	text4
  1314     0D5B                     __ptext4:	
  1315 ;; *************** function _PWM2_Start *****************
  1316 ;; Defined at:
  1317 ;;		line 78 in file "PWM.c"
  1318 ;; Parameters:    Size  Location     Type
  1319 ;;		None
  1320 ;; Auto vars:     Size  Location     Type
  1321 ;;		None
  1322 ;; Return value:  Size  Location     Type
  1323 ;;                  1    wreg      void 
  1324 ;; Registers used:
  1325 ;;		None
  1326 ;; Tracked objects:
  1327 ;;		On entry : 0/0
  1328 ;;		On exit  : 0/0
  1329 ;;		Unchanged: 0/0
  1330 ;; Data sizes:     COMMON   BANK0   BANK1   BANK3   BANK2
  1331 ;;      Params:         0       0       0       0       0
  1332 ;;      Locals:         0       0       0       0       0
  1333 ;;      Temps:          0       0       0       0       0
  1334 ;;      Totals:         0       0       0       0       0
  1335 ;;Total ram usage:        0 bytes
  1336 ;; Hardware stack levels used: 1
  1337 ;; Hardware stack levels required when called: 1
  1338 ;; This function calls:
  1339 ;;		Nothing
  1340 ;; This function is called by:
  1341 ;;		_PWM_ST
  1342 ;; This function uses a non-reentrant model
  1343 ;;
  1344                           
  1345     0D5B                     _PWM2_Start:	
  1346                           ;psect for function _PWM2_Start
  1347                           
  1348     0D5B                     l1266:	
  1349                           ;incstack = 0
  1350                           ; Regs used in _PWM2_Start: []
  1351                           
  1352                           
  1353                           ;PWM.c: 79: CCP2M3 = 1;
  1354     0D5B  1283               	bcf	3,5	;RP0=0, select bank0
  1355     0D5C  1303               	bcf	3,6	;RP1=0, select bank0
  1356     0D5D  159D               	bsf	29,3	;volatile
  1357                           
  1358                           ;PWM.c: 80: CCP2M2 = 1;
  1359     0D5E  151D               	bsf	29,2	;volatile
  1360                           
  1361                           ;PWM.c: 91: TMR2ON = 1;
  1362     0D5F  1512               	bsf	18,2	;volatile
  1363                           
  1364                           ;PWM.c: 92: TRISC1 = 0;
  1365     0D60  1683               	bsf	3,5	;RP0=1, select bank1
  1366     0D61  1303               	bcf	3,6	;RP1=0, select bank1
  1367     0D62  1087               	bcf	7,1	;volatile
  1368     0D63                     l222:
  1369     0D63  0008               	return
  1370     0D64                     __end_of_PWM2_Start:
  1371                           
  1372                           	psect	text5
  1373     0E19                     __ptext5:	
  1374 ;; *************** function _PWM2_Init *****************
  1375 ;; Defined at:
  1376 ;;		line 31 in file "PWM.c"
  1377 ;; Parameters:    Size  Location     Type
  1378 ;;  freq            4    7[BANK0 ] long 
  1379 ;; Auto vars:     Size  Location     Type
  1380 ;;		None
  1381 ;; Return value:  Size  Location     Type
  1382 ;;                  2    7[BANK0 ] int 
  1383 ;; Registers used:
  1384 ;;		wreg, status,2, status,0, pclath, cstack
  1385 ;; Tracked objects:
  1386 ;;		On entry : 0/0
  1387 ;;		On exit  : 0/0
  1388 ;;		Unchanged: 0/0
  1389 ;; Data sizes:     COMMON   BANK0   BANK1   BANK3   BANK2
  1390 ;;      Params:         0       4       0       0       0
  1391 ;;      Locals:         0       0       0       0       0
  1392 ;;      Temps:          0       4       0       0       0
  1393 ;;      Totals:         0       8       0       0       0
  1394 ;;Total ram usage:        8 bytes
  1395 ;; Hardware stack levels used: 1
  1396 ;; Hardware stack levels required when called: 2
  1397 ;; This function calls:
  1398 ;;		___aldiv
  1399 ;; This function is called by:
  1400 ;;		_PWM_ST
  1401 ;; This function uses a non-reentrant model
  1402 ;;
  1403                           
  1404     0E19                     _PWM2_Init:	
  1405                           ;psect for function _PWM2_Init
  1406                           
  1407     0E19                     l2478:	
  1408                           ;incstack = 0
  1409                           ; Regs used in _PWM2_Init: [wreg+status,2+status,0+pclath+cstack]
  1410                           
  1411     0E19  1283               	bcf	3,5	;RP0=0, select bank0
  1412     0E1A  1303               	bcf	3,6	;RP1=0, select bank0
  1413     0E1B  0827               	movf	PWM2_Init@freq,w
  1414     0E1C  00AB               	movwf	??_PWM2_Init
  1415     0E1D  0828               	movf	PWM2_Init@freq+1,w
  1416     0E1E  00AC               	movwf	??_PWM2_Init+1
  1417     0E1F  0829               	movf	PWM2_Init@freq+2,w
  1418     0E20  00AD               	movwf	??_PWM2_Init+2
  1419     0E21  082A               	movf	PWM2_Init@freq+3,w
  1420     0E22  00AE               	movwf	??_PWM2_Init+3
  1421     0E23  3002               	movlw	2
  1422     0E24                     u3945:
  1423     0E24  1003               	clrc
  1424     0E25  0DAB               	rlf	??_PWM2_Init,f
  1425     0E26  0DAC               	rlf	??_PWM2_Init+1,f
  1426     0E27  0DAD               	rlf	??_PWM2_Init+2,f
  1427     0E28  0DAE               	rlf	??_PWM2_Init+3,f
  1428     0E29                     u3940:
  1429     0E29  3EFF               	addlw	-1
  1430     0E2A  1D03               	skipz
  1431     0E2B  2E24               	goto	u3945
  1432     0E2C  3002               	movlw	2
  1433     0E2D                     u3955:
  1434     0E2D  1003               	clrc
  1435     0E2E  0DAB               	rlf	??_PWM2_Init,f
  1436     0E2F  0DAC               	rlf	??_PWM2_Init+1,f
  1437     0E30  0DAD               	rlf	??_PWM2_Init+2,f
  1438     0E31  0DAE               	rlf	??_PWM2_Init+3,f
  1439     0E32                     u3950:
  1440     0E32  3EFF               	addlw	-1
  1441     0E33  1D03               	skipz
  1442     0E34  2E2D               	goto	u3955
  1443     0E35  082E               	movf	??_PWM2_Init+3,w
  1444     0E36  00F5               	movwf	___aldiv@divisor+3
  1445     0E37  082D               	movf	??_PWM2_Init+2,w
  1446     0E38  00F4               	movwf	___aldiv@divisor+2
  1447     0E39  082C               	movf	??_PWM2_Init+1,w
  1448     0E3A  00F3               	movwf	___aldiv@divisor+1
  1449     0E3B  082B               	movf	??_PWM2_Init,w
  1450     0E3C  00F2               	movwf	___aldiv@divisor
  1451     0E3D  3000               	movlw	0
  1452     0E3E  00F9               	movwf	___aldiv@dividend+3
  1453     0E3F  303D               	movlw	61
  1454     0E40  00F8               	movwf	___aldiv@dividend+2
  1455     0E41  3009               	movlw	9
  1456     0E42  00F7               	movwf	___aldiv@dividend+1
  1457     0E43  3000               	movlw	0
  1458     0E44  00F6               	movwf	___aldiv@dividend
  1459     0E45  120A  118A  2761  120A  158A  	fcall	___aldiv
  1460     0E4A  0872               	movf	?___aldiv,w
  1461     0E4B  3EFF               	addlw	255
  1462     0E4C  1683               	bsf	3,5	;RP0=1, select bank1
  1463     0E4D  1303               	bcf	3,6	;RP1=0, select bank1
  1464     0E4E  0092               	movwf	18	;volatile
  1465     0E4F                     l205:
  1466     0E4F  0008               	return
  1467     0E50                     __end_of_PWM2_Init:
  1468                           
  1469                           	psect	text6
  1470     0615                     __ptext6:	
  1471 ;; *************** function _PWM2_Duty *****************
  1472 ;; Defined at:
  1473 ;;		line 47 in file "PWM.c"
  1474 ;; Parameters:    Size  Location     Type
  1475 ;;  duty            2   10[BANK1 ] unsigned int 
  1476 ;; Auto vars:     Size  Location     Type
  1477 ;;		None
  1478 ;; Return value:  Size  Location     Type
  1479 ;;                  2   10[BANK1 ] int 
  1480 ;; Registers used:
  1481 ;;		wreg, status,2, status,0, btemp+1, pclath, cstack
  1482 ;; Tracked objects:
  1483 ;;		On entry : 0/0
  1484 ;;		On exit  : 0/0
  1485 ;;		Unchanged: 0/0
  1486 ;; Data sizes:     COMMON   BANK0   BANK1   BANK3   BANK2
  1487 ;;      Params:         0       0       2       0       0
  1488 ;;      Locals:         0       0       0       0       0
  1489 ;;      Temps:          0       0       2       0       0
  1490 ;;      Totals:         0       0       4       0       0
  1491 ;;Total ram usage:        4 bytes
  1492 ;; Hardware stack levels used: 1
  1493 ;; Hardware stack levels required when called: 3
  1494 ;; This function calls:
  1495 ;;		_PWM_Max_Duty
  1496 ;;		___fldiv
  1497 ;;		___flmul
  1498 ;;		___fltol
  1499 ;;		___xxtofl
  1500 ;; This function is called by:
  1501 ;;		_motores
  1502 ;;		_main
  1503 ;;		_PWM_ST
  1504 ;; This function uses a non-reentrant model
  1505 ;;
  1506                           
  1507     0615                     _PWM2_Duty:	
  1508                           ;psect for function _PWM2_Duty
  1509                           
  1510     0615                     l2466:	
  1511                           ;incstack = 0
  1512                           ; Regs used in _PWM2_Duty: [wreg+status,2+status,0+btemp+1+pclath+cstack]
  1513                           
  1514                           
  1515                           ;PWM.c: 48: if(duty<1024){
  1516     0615  3004               	movlw	4
  1517     0616  1683               	bsf	3,5	;RP0=1, select bank1
  1518     0617  1303               	bcf	3,6	;RP1=0, select bank1
  1519     0618  025B               	subwf	(PWM2_Duty@duty+1)^(0+128),w
  1520     0619  3000               	movlw	0
  1521     061A  1903               	skipnz
  1522     061B  025A               	subwf	PWM2_Duty@duty^(0+128),w
  1523     061C  1803               	skipnc
  1524     061D  2E1F               	goto	u3891
  1525     061E  2E20               	goto	u3890
  1526     061F                     u3891:
  1527     061F  2EBA               	goto	l213
  1528     0620                     u3890:
  1529     0620                     l2468:
  1530                           
  1531                           ;PWM.c: 49: duty = ((float)duty/1023)*PWM_Max_Duty();
  1532     0620  085A               	movf	PWM2_Duty@duty^(0+128),w
  1533     0621  1283               	bcf	3,5	;RP0=0, select bank0
  1534     0622  1303               	bcf	3,6	;RP1=0, select bank0
  1535     0623  00AD               	movwf	___xxtofl@val
  1536     0624  1683               	bsf	3,5	;RP0=1, select bank1
  1537     0625  1303               	bcf	3,6	;RP1=0, select bank1
  1538     0626  085B               	movf	(PWM2_Duty@duty+1)^(0+128),w
  1539     0627  1283               	bcf	3,5	;RP0=0, select bank0
  1540     0628  1303               	bcf	3,6	;RP1=0, select bank0
  1541     0629  00AE               	movwf	___xxtofl@val+1
  1542     062A  01AF               	clrf	___xxtofl@val+2
  1543     062B  01B0               	clrf	___xxtofl@val+3
  1544     062C  3000               	movlw	0
  1545     062D  120A  118A  255B  120A  118A  	fcall	___xxtofl
  1546     0632  1283               	bcf	3,5	;RP0=0, select bank0
  1547     0633  1303               	bcf	3,6	;RP1=0, select bank0
  1548     0634  0830               	movf	?___xxtofl+3,w
  1549     0635  00C2               	movwf	___fldiv@b+3
  1550     0636  082F               	movf	?___xxtofl+2,w
  1551     0637  00C1               	movwf	___fldiv@b+2
  1552     0638  082E               	movf	?___xxtofl+1,w
  1553     0639  00C0               	movwf	___fldiv@b+1
  1554     063A  082D               	movf	?___xxtofl,w
  1555     063B  00BF               	movwf	___fldiv@b
  1556     063C  3044               	movlw	68
  1557     063D  00BE               	movwf	___fldiv@a+3
  1558     063E  307F               	movlw	127
  1559     063F  00BD               	movwf	___fldiv@a+2
  1560     0640  30C0               	movlw	192
  1561     0641  00BC               	movwf	___fldiv@a+1
  1562     0642  3000               	movlw	0
  1563     0643  00BB               	movwf	___fldiv@a
  1564     0644  120A  118A  2388  120A  118A  	fcall	___fldiv
  1565     0649  1283               	bcf	3,5	;RP0=0, select bank0
  1566     064A  1303               	bcf	3,6	;RP1=0, select bank0
  1567     064B  083E               	movf	?___fldiv+3,w
  1568     064C  00DC               	movwf	___flmul@a+3
  1569     064D  083D               	movf	?___fldiv+2,w
  1570     064E  00DB               	movwf	___flmul@a+2
  1571     064F  083C               	movf	?___fldiv+1,w
  1572     0650  00DA               	movwf	___flmul@a+1
  1573     0651  083B               	movf	?___fldiv,w
  1574     0652  00D9               	movwf	___flmul@a
  1575     0653  120A  158A  2650  120A  118A  	fcall	_PWM_Max_Duty
  1576     0658  1283               	bcf	3,5	;RP0=0, select bank0
  1577     0659  1303               	bcf	3,6	;RP1=0, select bank0
  1578     065A  0827               	movf	?_PWM_Max_Duty,w
  1579     065B  00AD               	movwf	___xxtofl@val
  1580     065C  0828               	movf	?_PWM_Max_Duty+1,w
  1581     065D  00AE               	movwf	___xxtofl@val+1
  1582     065E  3000               	movlw	0
  1583     065F  1BAE               	btfsc	___xxtofl@val+1,7
  1584     0660  30FF               	movlw	255
  1585     0661  00AF               	movwf	___xxtofl@val+2
  1586     0662  00B0               	movwf	___xxtofl@val+3
  1587     0663  3001               	movlw	1
  1588     0664  120A  118A  255B  120A  118A  	fcall	___xxtofl
  1589     0669  1283               	bcf	3,5	;RP0=0, select bank0
  1590     066A  1303               	bcf	3,6	;RP1=0, select bank0
  1591     066B  0830               	movf	?___xxtofl+3,w
  1592     066C  00D8               	movwf	___flmul@b+3
  1593     066D  082F               	movf	?___xxtofl+2,w
  1594     066E  00D7               	movwf	___flmul@b+2
  1595     066F  082E               	movf	?___xxtofl+1,w
  1596     0670  00D6               	movwf	___flmul@b+1
  1597     0671  082D               	movf	?___xxtofl,w
  1598     0672  00D5               	movwf	___flmul@b
  1599     0673  120A  118A  2043  120A  118A  	fcall	___flmul
  1600     0678  1283               	bcf	3,5	;RP0=0, select bank0
  1601     0679  1303               	bcf	3,6	;RP1=0, select bank0
  1602     067A  0858               	movf	?___flmul+3,w
  1603     067B  1683               	bsf	3,5	;RP0=1, select bank1
  1604     067C  1303               	bcf	3,6	;RP1=0, select bank1
  1605     067D  00D3               	movwf	(___fltol@f1+3)^(0+128)
  1606     067E  1283               	bcf	3,5	;RP0=0, select bank0
  1607     067F  1303               	bcf	3,6	;RP1=0, select bank0
  1608     0680  0857               	movf	?___flmul+2,w
  1609     0681  1683               	bsf	3,5	;RP0=1, select bank1
  1610     0682  1303               	bcf	3,6	;RP1=0, select bank1
  1611     0683  00D2               	movwf	(___fltol@f1+2)^(0+128)
  1612     0684  1283               	bcf	3,5	;RP0=0, select bank0
  1613     0685  1303               	bcf	3,6	;RP1=0, select bank0
  1614     0686  0856               	movf	?___flmul+1,w
  1615     0687  1683               	bsf	3,5	;RP0=1, select bank1
  1616     0688  1303               	bcf	3,6	;RP1=0, select bank1
  1617     0689  00D1               	movwf	(___fltol@f1+1)^(0+128)
  1618     068A  1283               	bcf	3,5	;RP0=0, select bank0
  1619     068B  1303               	bcf	3,6	;RP1=0, select bank0
  1620     068C  0855               	movf	?___flmul,w
  1621     068D  1683               	bsf	3,5	;RP0=1, select bank1
  1622     068E  1303               	bcf	3,6	;RP1=0, select bank1
  1623     068F  00D0               	movwf	___fltol@f1^(0+128)
  1624     0690  120A  158A  270D  120A  118A  	fcall	___fltol
  1625     0695  1683               	bsf	3,5	;RP0=1, select bank1
  1626     0696  1303               	bcf	3,6	;RP1=0, select bank1
  1627     0697  0851               	movf	(?___fltol+1)^(0+128),w
  1628     0698  00DB               	movwf	(PWM2_Duty@duty+1)^(0+128)
  1629     0699  0850               	movf	?___fltol^(0+128),w
  1630     069A  00DA               	movwf	PWM2_Duty@duty^(0+128)
  1631     069B                     l2470:
  1632                           
  1633                           ;PWM.c: 50: CCP2X = duty & 2;
  1634     069B  1283               	bcf	3,5	;RP0=0, select bank0
  1635     069C  1303               	bcf	3,6	;RP1=0, select bank0
  1636     069D  129D               	bcf	29,5	;volatile
  1637     069E                     l2472:
  1638                           
  1639                           ;PWM.c: 51: CCP2Y = duty & 1;
  1640     069E  1683               	bsf	3,5	;RP0=1, select bank1
  1641     069F  1303               	bcf	3,6	;RP1=0, select bank1
  1642     06A0  185A               	btfsc	PWM2_Duty@duty^(0+128),0
  1643     06A1  2EA3               	goto	u3901
  1644     06A2  2EA7               	goto	u3900
  1645     06A3                     u3901:
  1646     06A3  1283               	bcf	3,5	;RP0=0, select bank0
  1647     06A4  1303               	bcf	3,6	;RP1=0, select bank0
  1648     06A5  161D               	bsf	29,4	;volatile
  1649     06A6  2EAA               	goto	u3914
  1650     06A7                     u3900:
  1651     06A7  1283               	bcf	3,5	;RP0=0, select bank0
  1652     06A8  1303               	bcf	3,6	;RP1=0, select bank0
  1653     06A9  121D               	bcf	29,4	;volatile
  1654     06AA                     u3914:
  1655     06AA                     l2474:
  1656                           
  1657                           ;PWM.c: 52: CCPR2L = duty>>2;
  1658     06AA  1683               	bsf	3,5	;RP0=1, select bank1
  1659     06AB  1303               	bcf	3,6	;RP1=0, select bank1
  1660     06AC  085B               	movf	(PWM2_Duty@duty+1)^(0+128),w
  1661     06AD  00DD               	movwf	(??_PWM2_Duty^(0+128)+1)
  1662     06AE  085A               	movf	PWM2_Duty@duty^(0+128),w
  1663     06AF  00DC               	movwf	??_PWM2_Duty^(0+128)
  1664     06B0  1003               	clrc
  1665     06B1  0CDD               	rrf	(??_PWM2_Duty^(0+128)+1),f
  1666     06B2  0CDC               	rrf	??_PWM2_Duty^(0+128),f
  1667     06B3  1003               	clrc
  1668     06B4  0CDD               	rrf	(??_PWM2_Duty^(0+128)+1),f
  1669     06B5  0CDC               	rrf	??_PWM2_Duty^(0+128),f
  1670     06B6  085C               	movf	??_PWM2_Duty^(0+128),w
  1671     06B7  1283               	bcf	3,5	;RP0=0, select bank0
  1672     06B8  1303               	bcf	3,6	;RP1=0, select bank0
  1673     06B9  009B               	movwf	27	;volatile
  1674     06BA                     l213:
  1675     06BA  0008               	return
  1676     06BB                     __end_of_PWM2_Duty:
  1677                           
  1678                           	psect	text7
  1679     0D52                     __ptext7:	
  1680 ;; *************** function _PWM1_Start *****************
  1681 ;; Defined at:
  1682 ;;		line 56 in file "PWM.c"
  1683 ;; Parameters:    Size  Location     Type
  1684 ;;		None
  1685 ;; Auto vars:     Size  Location     Type
  1686 ;;		None
  1687 ;; Return value:  Size  Location     Type
  1688 ;;                  1    wreg      void 
  1689 ;; Registers used:
  1690 ;;		None
  1691 ;; Tracked objects:
  1692 ;;		On entry : 0/0
  1693 ;;		On exit  : 0/0
  1694 ;;		Unchanged: 0/0
  1695 ;; Data sizes:     COMMON   BANK0   BANK1   BANK3   BANK2
  1696 ;;      Params:         0       0       0       0       0
  1697 ;;      Locals:         0       0       0       0       0
  1698 ;;      Temps:          0       0       0       0       0
  1699 ;;      Totals:         0       0       0       0       0
  1700 ;;Total ram usage:        0 bytes
  1701 ;; Hardware stack levels used: 1
  1702 ;; Hardware stack levels required when called: 1
  1703 ;; This function calls:
  1704 ;;		Nothing
  1705 ;; This function is called by:
  1706 ;;		_PWM_ST
  1707 ;; This function uses a non-reentrant model
  1708 ;;
  1709                           
  1710     0D52                     _PWM1_Start:	
  1711                           ;psect for function _PWM1_Start
  1712                           
  1713     0D52                     l1264:	
  1714                           ;incstack = 0
  1715                           ; Regs used in _PWM1_Start: []
  1716                           
  1717                           
  1718                           ;PWM.c: 57: CCP1M3 = 1;
  1719     0D52  1283               	bcf	3,5	;RP0=0, select bank0
  1720     0D53  1303               	bcf	3,6	;RP1=0, select bank0
  1721     0D54  1597               	bsf	23,3	;volatile
  1722                           
  1723                           ;PWM.c: 58: CCP1M2 = 1;
  1724     0D55  1517               	bsf	23,2	;volatile
  1725                           
  1726                           ;PWM.c: 69: TMR2ON = 1;
  1727     0D56  1512               	bsf	18,2	;volatile
  1728                           
  1729                           ;PWM.c: 70: TRISC2 = 0;
  1730     0D57  1683               	bsf	3,5	;RP0=1, select bank1
  1731     0D58  1303               	bcf	3,6	;RP1=0, select bank1
  1732     0D59  1107               	bcf	7,2	;volatile
  1733     0D5A                     l216:
  1734     0D5A  0008               	return
  1735     0D5B                     __end_of_PWM1_Start:
  1736                           
  1737                           	psect	text8
  1738     0DE2                     __ptext8:	
  1739 ;; *************** function _PWM1_Init *****************
  1740 ;; Defined at:
  1741 ;;		line 26 in file "PWM.c"
  1742 ;; Parameters:    Size  Location     Type
  1743 ;;  freq            4    7[BANK0 ] long 
  1744 ;; Auto vars:     Size  Location     Type
  1745 ;;		None
  1746 ;; Return value:  Size  Location     Type
  1747 ;;                  2    7[BANK0 ] int 
  1748 ;; Registers used:
  1749 ;;		wreg, status,2, status,0, pclath, cstack
  1750 ;; Tracked objects:
  1751 ;;		On entry : 0/0
  1752 ;;		On exit  : 0/0
  1753 ;;		Unchanged: 0/0
  1754 ;; Data sizes:     COMMON   BANK0   BANK1   BANK3   BANK2
  1755 ;;      Params:         0       4       0       0       0
  1756 ;;      Locals:         0       0       0       0       0
  1757 ;;      Temps:          0       4       0       0       0
  1758 ;;      Totals:         0       8       0       0       0
  1759 ;;Total ram usage:        8 bytes
  1760 ;; Hardware stack levels used: 1
  1761 ;; Hardware stack levels required when called: 2
  1762 ;; This function calls:
  1763 ;;		___aldiv
  1764 ;; This function is called by:
  1765 ;;		_PWM_ST
  1766 ;; This function uses a non-reentrant model
  1767 ;;
  1768                           
  1769     0DE2                     _PWM1_Init:	
  1770                           ;psect for function _PWM1_Init
  1771                           
  1772     0DE2                     l2476:	
  1773                           ;incstack = 0
  1774                           ; Regs used in _PWM1_Init: [wreg+status,2+status,0+pclath+cstack]
  1775                           
  1776     0DE2  1283               	bcf	3,5	;RP0=0, select bank0
  1777     0DE3  1303               	bcf	3,6	;RP1=0, select bank0
  1778     0DE4  0827               	movf	PWM1_Init@freq,w
  1779     0DE5  00AB               	movwf	??_PWM1_Init
  1780     0DE6  0828               	movf	PWM1_Init@freq+1,w
  1781     0DE7  00AC               	movwf	??_PWM1_Init+1
  1782     0DE8  0829               	movf	PWM1_Init@freq+2,w
  1783     0DE9  00AD               	movwf	??_PWM1_Init+2
  1784     0DEA  082A               	movf	PWM1_Init@freq+3,w
  1785     0DEB  00AE               	movwf	??_PWM1_Init+3
  1786     0DEC  3002               	movlw	2
  1787     0DED                     u3925:
  1788     0DED  1003               	clrc
  1789     0DEE  0DAB               	rlf	??_PWM1_Init,f
  1790     0DEF  0DAC               	rlf	??_PWM1_Init+1,f
  1791     0DF0  0DAD               	rlf	??_PWM1_Init+2,f
  1792     0DF1  0DAE               	rlf	??_PWM1_Init+3,f
  1793     0DF2                     u3920:
  1794     0DF2  3EFF               	addlw	-1
  1795     0DF3  1D03               	skipz
  1796     0DF4  2DED               	goto	u3925
  1797     0DF5  3002               	movlw	2
  1798     0DF6                     u3935:
  1799     0DF6  1003               	clrc
  1800     0DF7  0DAB               	rlf	??_PWM1_Init,f
  1801     0DF8  0DAC               	rlf	??_PWM1_Init+1,f
  1802     0DF9  0DAD               	rlf	??_PWM1_Init+2,f
  1803     0DFA  0DAE               	rlf	??_PWM1_Init+3,f
  1804     0DFB                     u3930:
  1805     0DFB  3EFF               	addlw	-1
  1806     0DFC  1D03               	skipz
  1807     0DFD  2DF6               	goto	u3935
  1808     0DFE  082E               	movf	??_PWM1_Init+3,w
  1809     0DFF  00F5               	movwf	___aldiv@divisor+3
  1810     0E00  082D               	movf	??_PWM1_Init+2,w
  1811     0E01  00F4               	movwf	___aldiv@divisor+2
  1812     0E02  082C               	movf	??_PWM1_Init+1,w
  1813     0E03  00F3               	movwf	___aldiv@divisor+1
  1814     0E04  082B               	movf	??_PWM1_Init,w
  1815     0E05  00F2               	movwf	___aldiv@divisor
  1816     0E06  3000               	movlw	0
  1817     0E07  00F9               	movwf	___aldiv@dividend+3
  1818     0E08  303D               	movlw	61
  1819     0E09  00F8               	movwf	___aldiv@dividend+2
  1820     0E0A  3009               	movlw	9
  1821     0E0B  00F7               	movwf	___aldiv@dividend+1
  1822     0E0C  3000               	movlw	0
  1823     0E0D  00F6               	movwf	___aldiv@dividend
  1824     0E0E  120A  118A  2761  120A  158A  	fcall	___aldiv
  1825     0E13  0872               	movf	?___aldiv,w
  1826     0E14  3EFF               	addlw	255
  1827     0E15  1683               	bsf	3,5	;RP0=1, select bank1
  1828     0E16  1303               	bcf	3,6	;RP1=0, select bank1
  1829     0E17  0092               	movwf	18	;volatile
  1830     0E18                     l202:
  1831     0E18  0008               	return
  1832     0E19                     __end_of_PWM1_Init:
  1833                           
  1834                           	psect	text9
  1835     06BB                     __ptext9:	
  1836 ;; *************** function _PWM1_Duty *****************
  1837 ;; Defined at:
  1838 ;;		line 37 in file "PWM.c"
  1839 ;; Parameters:    Size  Location     Type
  1840 ;;  duty            2   10[BANK1 ] unsigned int 
  1841 ;; Auto vars:     Size  Location     Type
  1842 ;;		None
  1843 ;; Return value:  Size  Location     Type
  1844 ;;                  2   10[BANK1 ] int 
  1845 ;; Registers used:
  1846 ;;		wreg, status,2, status,0, btemp+1, pclath, cstack
  1847 ;; Tracked objects:
  1848 ;;		On entry : 0/0
  1849 ;;		On exit  : 0/0
  1850 ;;		Unchanged: 0/0
  1851 ;; Data sizes:     COMMON   BANK0   BANK1   BANK3   BANK2
  1852 ;;      Params:         0       0       2       0       0
  1853 ;;      Locals:         0       0       0       0       0
  1854 ;;      Temps:          0       0       2       0       0
  1855 ;;      Totals:         0       0       4       0       0
  1856 ;;Total ram usage:        4 bytes
  1857 ;; Hardware stack levels used: 1
  1858 ;; Hardware stack levels required when called: 3
  1859 ;; This function calls:
  1860 ;;		_PWM_Max_Duty
  1861 ;;		___fldiv
  1862 ;;		___flmul
  1863 ;;		___fltol
  1864 ;;		___xxtofl
  1865 ;; This function is called by:
  1866 ;;		_motores
  1867 ;;		_main
  1868 ;;		_PWM_ST
  1869 ;; This function uses a non-reentrant model
  1870 ;;
  1871                           
  1872     06BB                     _PWM1_Duty:	
  1873                           ;psect for function _PWM1_Duty
  1874                           
  1875     06BB                     l2456:	
  1876                           ;incstack = 0
  1877                           ; Regs used in _PWM1_Duty: [wreg+status,2+status,0+btemp+1+pclath+cstack]
  1878                           
  1879                           
  1880                           ;PWM.c: 39: if(duty<1024) {
  1881     06BB  3004               	movlw	4
  1882     06BC  1683               	bsf	3,5	;RP0=1, select bank1
  1883     06BD  1303               	bcf	3,6	;RP1=0, select bank1
  1884     06BE  025B               	subwf	(PWM1_Duty@duty+1)^(0+128),w
  1885     06BF  3000               	movlw	0
  1886     06C0  1903               	skipnz
  1887     06C1  025A               	subwf	PWM1_Duty@duty^(0+128),w
  1888     06C2  1803               	skipnc
  1889     06C3  2EC5               	goto	u3861
  1890     06C4  2EC6               	goto	u3860
  1891     06C5                     u3861:
  1892     06C5  2F60               	goto	l209
  1893     06C6                     u3860:
  1894     06C6                     l2458:
  1895                           
  1896                           ;PWM.c: 40: duty = ((float)duty/1023)*PWM_Max_Duty();
  1897     06C6  085A               	movf	PWM1_Duty@duty^(0+128),w
  1898     06C7  1283               	bcf	3,5	;RP0=0, select bank0
  1899     06C8  1303               	bcf	3,6	;RP1=0, select bank0
  1900     06C9  00AD               	movwf	___xxtofl@val
  1901     06CA  1683               	bsf	3,5	;RP0=1, select bank1
  1902     06CB  1303               	bcf	3,6	;RP1=0, select bank1
  1903     06CC  085B               	movf	(PWM1_Duty@duty+1)^(0+128),w
  1904     06CD  1283               	bcf	3,5	;RP0=0, select bank0
  1905     06CE  1303               	bcf	3,6	;RP1=0, select bank0
  1906     06CF  00AE               	movwf	___xxtofl@val+1
  1907     06D0  01AF               	clrf	___xxtofl@val+2
  1908     06D1  01B0               	clrf	___xxtofl@val+3
  1909     06D2  3000               	movlw	0
  1910     06D3  120A  118A  255B  120A  118A  	fcall	___xxtofl
  1911     06D8  1283               	bcf	3,5	;RP0=0, select bank0
  1912     06D9  1303               	bcf	3,6	;RP1=0, select bank0
  1913     06DA  0830               	movf	?___xxtofl+3,w
  1914     06DB  00C2               	movwf	___fldiv@b+3
  1915     06DC  082F               	movf	?___xxtofl+2,w
  1916     06DD  00C1               	movwf	___fldiv@b+2
  1917     06DE  082E               	movf	?___xxtofl+1,w
  1918     06DF  00C0               	movwf	___fldiv@b+1
  1919     06E0  082D               	movf	?___xxtofl,w
  1920     06E1  00BF               	movwf	___fldiv@b
  1921     06E2  3044               	movlw	68
  1922     06E3  00BE               	movwf	___fldiv@a+3
  1923     06E4  307F               	movlw	127
  1924     06E5  00BD               	movwf	___fldiv@a+2
  1925     06E6  30C0               	movlw	192
  1926     06E7  00BC               	movwf	___fldiv@a+1
  1927     06E8  3000               	movlw	0
  1928     06E9  00BB               	movwf	___fldiv@a
  1929     06EA  120A  118A  2388  120A  118A  	fcall	___fldiv
  1930     06EF  1283               	bcf	3,5	;RP0=0, select bank0
  1931     06F0  1303               	bcf	3,6	;RP1=0, select bank0
  1932     06F1  083E               	movf	?___fldiv+3,w
  1933     06F2  00DC               	movwf	___flmul@a+3
  1934     06F3  083D               	movf	?___fldiv+2,w
  1935     06F4  00DB               	movwf	___flmul@a+2
  1936     06F5  083C               	movf	?___fldiv+1,w
  1937     06F6  00DA               	movwf	___flmul@a+1
  1938     06F7  083B               	movf	?___fldiv,w
  1939     06F8  00D9               	movwf	___flmul@a
  1940     06F9  120A  158A  2650  120A  118A  	fcall	_PWM_Max_Duty
  1941     06FE  1283               	bcf	3,5	;RP0=0, select bank0
  1942     06FF  1303               	bcf	3,6	;RP1=0, select bank0
  1943     0700  0827               	movf	?_PWM_Max_Duty,w
  1944     0701  00AD               	movwf	___xxtofl@val
  1945     0702  0828               	movf	?_PWM_Max_Duty+1,w
  1946     0703  00AE               	movwf	___xxtofl@val+1
  1947     0704  3000               	movlw	0
  1948     0705  1BAE               	btfsc	___xxtofl@val+1,7
  1949     0706  30FF               	movlw	255
  1950     0707  00AF               	movwf	___xxtofl@val+2
  1951     0708  00B0               	movwf	___xxtofl@val+3
  1952     0709  3001               	movlw	1
  1953     070A  120A  118A  255B  120A  118A  	fcall	___xxtofl
  1954     070F  1283               	bcf	3,5	;RP0=0, select bank0
  1955     0710  1303               	bcf	3,6	;RP1=0, select bank0
  1956     0711  0830               	movf	?___xxtofl+3,w
  1957     0712  00D8               	movwf	___flmul@b+3
  1958     0713  082F               	movf	?___xxtofl+2,w
  1959     0714  00D7               	movwf	___flmul@b+2
  1960     0715  082E               	movf	?___xxtofl+1,w
  1961     0716  00D6               	movwf	___flmul@b+1
  1962     0717  082D               	movf	?___xxtofl,w
  1963     0718  00D5               	movwf	___flmul@b
  1964     0719  120A  118A  2043  120A  118A  	fcall	___flmul
  1965     071E  1283               	bcf	3,5	;RP0=0, select bank0
  1966     071F  1303               	bcf	3,6	;RP1=0, select bank0
  1967     0720  0858               	movf	?___flmul+3,w
  1968     0721  1683               	bsf	3,5	;RP0=1, select bank1
  1969     0722  1303               	bcf	3,6	;RP1=0, select bank1
  1970     0723  00D3               	movwf	(___fltol@f1+3)^(0+128)
  1971     0724  1283               	bcf	3,5	;RP0=0, select bank0
  1972     0725  1303               	bcf	3,6	;RP1=0, select bank0
  1973     0726  0857               	movf	?___flmul+2,w
  1974     0727  1683               	bsf	3,5	;RP0=1, select bank1
  1975     0728  1303               	bcf	3,6	;RP1=0, select bank1
  1976     0729  00D2               	movwf	(___fltol@f1+2)^(0+128)
  1977     072A  1283               	bcf	3,5	;RP0=0, select bank0
  1978     072B  1303               	bcf	3,6	;RP1=0, select bank0
  1979     072C  0856               	movf	?___flmul+1,w
  1980     072D  1683               	bsf	3,5	;RP0=1, select bank1
  1981     072E  1303               	bcf	3,6	;RP1=0, select bank1
  1982     072F  00D1               	movwf	(___fltol@f1+1)^(0+128)
  1983     0730  1283               	bcf	3,5	;RP0=0, select bank0
  1984     0731  1303               	bcf	3,6	;RP1=0, select bank0
  1985     0732  0855               	movf	?___flmul,w
  1986     0733  1683               	bsf	3,5	;RP0=1, select bank1
  1987     0734  1303               	bcf	3,6	;RP1=0, select bank1
  1988     0735  00D0               	movwf	___fltol@f1^(0+128)
  1989     0736  120A  158A  270D  120A  118A  	fcall	___fltol
  1990     073B  1683               	bsf	3,5	;RP0=1, select bank1
  1991     073C  1303               	bcf	3,6	;RP1=0, select bank1
  1992     073D  0851               	movf	(?___fltol+1)^(0+128),w
  1993     073E  00DB               	movwf	(PWM1_Duty@duty+1)^(0+128)
  1994     073F  0850               	movf	?___fltol^(0+128),w
  1995     0740  00DA               	movwf	PWM1_Duty@duty^(0+128)
  1996     0741                     l2460:
  1997                           
  1998                           ;PWM.c: 41: CCP1X = duty & 2;
  1999     0741  1283               	bcf	3,5	;RP0=0, select bank0
  2000     0742  1303               	bcf	3,6	;RP1=0, select bank0
  2001     0743  1297               	bcf	23,5	;volatile
  2002     0744                     l2462:
  2003                           
  2004                           ;PWM.c: 42: CCP1Y = duty & 1;
  2005     0744  1683               	bsf	3,5	;RP0=1, select bank1
  2006     0745  1303               	bcf	3,6	;RP1=0, select bank1
  2007     0746  185A               	btfsc	PWM1_Duty@duty^(0+128),0
  2008     0747  2F49               	goto	u3871
  2009     0748  2F4D               	goto	u3870
  2010     0749                     u3871:
  2011     0749  1283               	bcf	3,5	;RP0=0, select bank0
  2012     074A  1303               	bcf	3,6	;RP1=0, select bank0
  2013     074B  1617               	bsf	23,4	;volatile
  2014     074C  2F50               	goto	u3884
  2015     074D                     u3870:
  2016     074D  1283               	bcf	3,5	;RP0=0, select bank0
  2017     074E  1303               	bcf	3,6	;RP1=0, select bank0
  2018     074F  1217               	bcf	23,4	;volatile
  2019     0750                     u3884:
  2020     0750                     l2464:
  2021                           
  2022                           ;PWM.c: 43: CCPR1L = duty>>2;
  2023     0750  1683               	bsf	3,5	;RP0=1, select bank1
  2024     0751  1303               	bcf	3,6	;RP1=0, select bank1
  2025     0752  085B               	movf	(PWM1_Duty@duty+1)^(0+128),w
  2026     0753  00DD               	movwf	(??_PWM1_Duty^(0+128)+1)
  2027     0754  085A               	movf	PWM1_Duty@duty^(0+128),w
  2028     0755  00DC               	movwf	??_PWM1_Duty^(0+128)
  2029     0756  1003               	clrc
  2030     0757  0CDD               	rrf	(??_PWM1_Duty^(0+128)+1),f
  2031     0758  0CDC               	rrf	??_PWM1_Duty^(0+128),f
  2032     0759  1003               	clrc
  2033     075A  0CDD               	rrf	(??_PWM1_Duty^(0+128)+1),f
  2034     075B  0CDC               	rrf	??_PWM1_Duty^(0+128),f
  2035     075C  085C               	movf	??_PWM1_Duty^(0+128),w
  2036     075D  1283               	bcf	3,5	;RP0=0, select bank0
  2037     075E  1303               	bcf	3,6	;RP1=0, select bank0
  2038     075F  0095               	movwf	21	;volatile
  2039     0760                     l209:
  2040     0760  0008               	return
  2041     0761                     __end_of_PWM1_Duty:
  2042                           
  2043                           	psect	text10
  2044     055B                     __ptext10:	
  2045 ;; *************** function ___xxtofl *****************
  2046 ;; Defined at:
  2047 ;;		line 10 in file "C:\Program Files\Microchip\xc8\v2.40\pic\sources\c90\common\xxtofl.c"
  2048 ;; Parameters:    Size  Location     Type
  2049 ;;  sign            1    wreg     unsigned char 
  2050 ;;  val             4   13[BANK0 ] long 
  2051 ;; Auto vars:     Size  Location     Type
  2052 ;;  sign            1   21[BANK0 ] unsigned char 
  2053 ;;  arg             4   23[BANK0 ] unsigned long 
  2054 ;;  exp             1   22[BANK0 ] unsigned char 
  2055 ;; Return value:  Size  Location     Type
  2056 ;;                  4   13[BANK0 ] unsigned char 
  2057 ;; Registers used:
  2058 ;;		wreg, status,2, status,0
  2059 ;; Tracked objects:
  2060 ;;		On entry : 0/0
  2061 ;;		On exit  : 0/0
  2062 ;;		Unchanged: 0/0
  2063 ;; Data sizes:     COMMON   BANK0   BANK1   BANK3   BANK2
  2064 ;;      Params:         0       4       0       0       0
  2065 ;;      Locals:         0       6       0       0       0
  2066 ;;      Temps:          0       4       0       0       0
  2067 ;;      Totals:         0      14       0       0       0
  2068 ;;Total ram usage:       14 bytes
  2069 ;; Hardware stack levels used: 1
  2070 ;; Hardware stack levels required when called: 1
  2071 ;; This function calls:
  2072 ;;		Nothing
  2073 ;; This function is called by:
  2074 ;;		_PWM1_Duty
  2075 ;;		_PWM2_Duty
  2076 ;;		_PID
  2077 ;; This function uses a non-reentrant model
  2078 ;;
  2079                           
  2080     055B                     ___xxtofl:	
  2081                           ;psect for function ___xxtofl
  2082                           
  2083                           
  2084                           ;incstack = 0
  2085                           ; Regs used in ___xxtofl: [wreg+status,2+status,0]
  2086                           ;___xxtofl@sign stored from wreg
  2087     055B  1283               	bcf	3,5	;RP0=0, select bank0
  2088     055C  1303               	bcf	3,6	;RP1=0, select bank0
  2089     055D  00B5               	movwf	___xxtofl@sign
  2090     055E                     l1806:
  2091     055E  0835               	movf	___xxtofl@sign,w
  2092     055F  1903               	btfsc	3,2
  2093     0560  2D62               	goto	u2291
  2094     0561  2D63               	goto	u2290
  2095     0562                     u2291:
  2096     0562  2D77               	goto	l1812
  2097     0563                     u2290:
  2098     0563                     l1808:
  2099     0563  1FB0               	btfss	___xxtofl@val+3,7
  2100     0564  2D66               	goto	u2301
  2101     0565  2D67               	goto	u2300
  2102     0566                     u2301:
  2103     0566  2D77               	goto	l1812
  2104     0567                     u2300:
  2105     0567                     l1810:
  2106     0567  092D               	comf	___xxtofl@val,w
  2107     0568  00B7               	movwf	___xxtofl@arg
  2108     0569  092E               	comf	___xxtofl@val+1,w
  2109     056A  00B8               	movwf	___xxtofl@arg+1
  2110     056B  092F               	comf	___xxtofl@val+2,w
  2111     056C  00B9               	movwf	___xxtofl@arg+2
  2112     056D  0930               	comf	___xxtofl@val+3,w
  2113     056E  00BA               	movwf	___xxtofl@arg+3
  2114     056F  0AB7               	incf	___xxtofl@arg,f
  2115     0570  1903               	skipnz
  2116     0571  0AB8               	incf	___xxtofl@arg+1,f
  2117     0572  1903               	skipnz
  2118     0573  0AB9               	incf	___xxtofl@arg+2,f
  2119     0574  1903               	skipnz
  2120     0575  0ABA               	incf	___xxtofl@arg+3,f
  2121     0576  2D7F               	goto	l747
  2122     0577                     l1812:
  2123     0577  0830               	movf	___xxtofl@val+3,w
  2124     0578  00BA               	movwf	___xxtofl@arg+3
  2125     0579  082F               	movf	___xxtofl@val+2,w
  2126     057A  00B9               	movwf	___xxtofl@arg+2
  2127     057B  082E               	movf	___xxtofl@val+1,w
  2128     057C  00B8               	movwf	___xxtofl@arg+1
  2129     057D  082D               	movf	___xxtofl@val,w
  2130     057E  00B7               	movwf	___xxtofl@arg
  2131     057F                     l747:
  2132     057F  0830               	movf	___xxtofl@val+3,w
  2133     0580  042F               	iorwf	___xxtofl@val+2,w
  2134     0581  042E               	iorwf	___xxtofl@val+1,w
  2135     0582  042D               	iorwf	___xxtofl@val,w
  2136     0583  1D03               	skipz
  2137     0584  2D86               	goto	u2311
  2138     0585  2D87               	goto	u2310
  2139     0586                     u2311:
  2140     0586  2D90               	goto	l1818
  2141     0587                     u2310:
  2142     0587                     l1814:
  2143     0587  3000               	movlw	0
  2144     0588  00B0               	movwf	?___xxtofl+3
  2145     0589  3000               	movlw	0
  2146     058A  00AF               	movwf	?___xxtofl+2
  2147     058B  3000               	movlw	0
  2148     058C  00AE               	movwf	?___xxtofl+1
  2149     058D  3000               	movlw	0
  2150     058E  00AD               	movwf	?___xxtofl
  2151     058F  2E14               	goto	l749
  2152     0590                     l1818:
  2153     0590  3096               	movlw	150
  2154     0591  00B6               	movwf	___xxtofl@exp
  2155     0592  2DA0               	goto	l1822
  2156     0593                     l1820:
  2157     0593  3001               	movlw	1
  2158     0594  00B1               	movwf	??___xxtofl
  2159     0595  0831               	movf	??___xxtofl,w
  2160     0596  07B6               	addwf	___xxtofl@exp,f
  2161     0597  3001               	movlw	1
  2162     0598                     u2325:
  2163     0598  1003               	clrc
  2164     0599  0CBA               	rrf	___xxtofl@arg+3,f
  2165     059A  0CB9               	rrf	___xxtofl@arg+2,f
  2166     059B  0CB8               	rrf	___xxtofl@arg+1,f
  2167     059C  0CB7               	rrf	___xxtofl@arg,f
  2168     059D  3EFF               	addlw	-1
  2169     059E  1D03               	skipz
  2170     059F  2D98               	goto	u2325
  2171     05A0                     l1822:
  2172     05A0  30FE               	movlw	254
  2173     05A1  053A               	andwf	___xxtofl@arg+3,w
  2174     05A2  1D03               	btfss	3,2
  2175     05A3  2DA5               	goto	u2331
  2176     05A4  2DA6               	goto	u2330
  2177     05A5                     u2331:
  2178     05A5  2D93               	goto	l1820
  2179     05A6                     u2330:
  2180     05A6  2DC2               	goto	l753
  2181     05A7                     l1824:
  2182     05A7  3001               	movlw	1
  2183     05A8  00B1               	movwf	??___xxtofl
  2184     05A9  0831               	movf	??___xxtofl,w
  2185     05AA  07B6               	addwf	___xxtofl@exp,f
  2186     05AB                     l1826:
  2187     05AB  3001               	movlw	1
  2188     05AC  07B7               	addwf	___xxtofl@arg,f
  2189     05AD  3000               	movlw	0
  2190     05AE  1803               	skipnc
  2191     05AF  3001               	movlw	1
  2192     05B0  07B8               	addwf	___xxtofl@arg+1,f
  2193     05B1  3000               	movlw	0
  2194     05B2  1803               	skipnc
  2195     05B3  3001               	movlw	1
  2196     05B4  07B9               	addwf	___xxtofl@arg+2,f
  2197     05B5  3000               	movlw	0
  2198     05B6  1803               	skipnc
  2199     05B7  3001               	movlw	1
  2200     05B8  07BA               	addwf	___xxtofl@arg+3,f
  2201     05B9                     l1828:
  2202     05B9  3001               	movlw	1
  2203     05BA                     u2345:
  2204     05BA  1003               	clrc
  2205     05BB  0CBA               	rrf	___xxtofl@arg+3,f
  2206     05BC  0CB9               	rrf	___xxtofl@arg+2,f
  2207     05BD  0CB8               	rrf	___xxtofl@arg+1,f
  2208     05BE  0CB7               	rrf	___xxtofl@arg,f
  2209     05BF  3EFF               	addlw	-1
  2210     05C0  1D03               	skipz
  2211     05C1  2DBA               	goto	u2345
  2212     05C2                     l753:
  2213     05C2  30FF               	movlw	255
  2214     05C3  053A               	andwf	___xxtofl@arg+3,w
  2215     05C4  1D03               	btfss	3,2
  2216     05C5  2DC7               	goto	u2351
  2217     05C6  2DC8               	goto	u2350
  2218     05C7                     u2351:
  2219     05C7  2DA7               	goto	l1824
  2220     05C8                     u2350:
  2221     05C8  2DD4               	goto	l1832
  2222     05C9                     l1830:
  2223     05C9  3001               	movlw	1
  2224     05CA  02B6               	subwf	___xxtofl@exp,f
  2225     05CB  3001               	movlw	1
  2226     05CC  00B1               	movwf	??___xxtofl
  2227     05CD                     u2365:
  2228     05CD  1003               	clrc
  2229     05CE  0DB7               	rlf	___xxtofl@arg,f
  2230     05CF  0DB8               	rlf	___xxtofl@arg+1,f
  2231     05D0  0DB9               	rlf	___xxtofl@arg+2,f
  2232     05D1  0DBA               	rlf	___xxtofl@arg+3,f
  2233     05D2  0BB1               	decfsz	??___xxtofl,f
  2234     05D3  2DCD               	goto	u2365
  2235     05D4                     l1832:
  2236     05D4  1BB9               	btfsc	___xxtofl@arg+2,7
  2237     05D5  2DD7               	goto	u2371
  2238     05D6  2DD8               	goto	u2370
  2239     05D7                     u2371:
  2240     05D7  2DDE               	goto	l760
  2241     05D8                     u2370:
  2242     05D8                     l1834:
  2243     05D8  3002               	movlw	2
  2244     05D9  0236               	subwf	___xxtofl@exp,w
  2245     05DA  1803               	skipnc
  2246     05DB  2DDD               	goto	u2381
  2247     05DC  2DDE               	goto	u2380
  2248     05DD                     u2381:
  2249     05DD  2DC9               	goto	l1830
  2250     05DE                     u2380:
  2251     05DE                     l760:
  2252     05DE  1836               	btfsc	___xxtofl@exp,0
  2253     05DF  2DE1               	goto	u2391
  2254     05E0  2DE2               	goto	u2390
  2255     05E1                     u2391:
  2256     05E1  2DEA               	goto	l761
  2257     05E2                     u2390:
  2258     05E2                     l1836:
  2259     05E2  30FF               	movlw	255
  2260     05E3  05B7               	andwf	___xxtofl@arg,f
  2261     05E4  30FF               	movlw	255
  2262     05E5  05B8               	andwf	___xxtofl@arg+1,f
  2263     05E6  307F               	movlw	127
  2264     05E7  05B9               	andwf	___xxtofl@arg+2,f
  2265     05E8  30FF               	movlw	255
  2266     05E9  05BA               	andwf	___xxtofl@arg+3,f
  2267     05EA                     l761:
  2268     05EA  1003               	clrc
  2269     05EB  0CB6               	rrf	___xxtofl@exp,f
  2270     05EC                     l1838:
  2271     05EC  0836               	movf	___xxtofl@exp,w
  2272     05ED  00B1               	movwf	??___xxtofl
  2273     05EE  01B2               	clrf	??___xxtofl+1
  2274     05EF  01B3               	clrf	??___xxtofl+2
  2275     05F0  01B4               	clrf	??___xxtofl+3
  2276     05F1  3018               	movlw	24
  2277     05F2                     u2405:
  2278     05F2  1003               	clrc
  2279     05F3  0DB1               	rlf	??___xxtofl,f
  2280     05F4  0DB2               	rlf	??___xxtofl+1,f
  2281     05F5  0DB3               	rlf	??___xxtofl+2,f
  2282     05F6  0DB4               	rlf	??___xxtofl+3,f
  2283     05F7                     u2400:
  2284     05F7  3EFF               	addlw	-1
  2285     05F8  1D03               	skipz
  2286     05F9  2DF2               	goto	u2405
  2287     05FA  0831               	movf	??___xxtofl,w
  2288     05FB  04B7               	iorwf	___xxtofl@arg,f
  2289     05FC  0832               	movf	??___xxtofl+1,w
  2290     05FD  04B8               	iorwf	___xxtofl@arg+1,f
  2291     05FE  0833               	movf	??___xxtofl+2,w
  2292     05FF  04B9               	iorwf	___xxtofl@arg+2,f
  2293     0600  0834               	movf	??___xxtofl+3,w
  2294     0601  04BA               	iorwf	___xxtofl@arg+3,f
  2295     0602                     l1840:
  2296     0602  0835               	movf	___xxtofl@sign,w
  2297     0603  1903               	btfsc	3,2
  2298     0604  2E06               	goto	u2411
  2299     0605  2E07               	goto	u2410
  2300     0606                     u2411:
  2301     0606  2E0C               	goto	l1846
  2302     0607                     u2410:
  2303     0607                     l1842:
  2304     0607  1FB0               	btfss	___xxtofl@val+3,7
  2305     0608  2E0A               	goto	u2421
  2306     0609  2E0B               	goto	u2420
  2307     060A                     u2421:
  2308     060A  2E0C               	goto	l1846
  2309     060B                     u2420:
  2310     060B                     l1844:
  2311     060B  17BA               	bsf	___xxtofl@arg+3,7
  2312     060C                     l1846:
  2313     060C  083A               	movf	___xxtofl@arg+3,w
  2314     060D  00B0               	movwf	?___xxtofl+3
  2315     060E  0839               	movf	___xxtofl@arg+2,w
  2316     060F  00AF               	movwf	?___xxtofl+2
  2317     0610  0838               	movf	___xxtofl@arg+1,w
  2318     0611  00AE               	movwf	?___xxtofl+1
  2319     0612  0837               	movf	___xxtofl@arg,w
  2320     0613  00AD               	movwf	?___xxtofl
  2321     0614                     l749:
  2322     0614  0008               	return
  2323     0615                     __end_of___xxtofl:
  2324                           
  2325                           	psect	text11
  2326     0F0D                     __ptext11:	
  2327 ;; *************** function ___fltol *****************
  2328 ;; Defined at:
  2329 ;;		line 43 in file "C:\Program Files\Microchip\xc8\v2.40\pic\sources\c90\common\fltol.c"
  2330 ;; Parameters:    Size  Location     Type
  2331 ;;  f1              4    0[BANK1 ] unsigned char 
  2332 ;; Auto vars:     Size  Location     Type
  2333 ;;  exp1            1    9[BANK1 ] unsigned char 
  2334 ;;  sign1           1    8[BANK1 ] unsigned char 
  2335 ;; Return value:  Size  Location     Type
  2336 ;;                  4    0[BANK1 ] long 
  2337 ;; Registers used:
  2338 ;;		wreg, status,2, status,0
  2339 ;; Tracked objects:
  2340 ;;		On entry : 0/0
  2341 ;;		On exit  : 0/0
  2342 ;;		Unchanged: 0/0
  2343 ;; Data sizes:     COMMON   BANK0   BANK1   BANK3   BANK2
  2344 ;;      Params:         0       0       4       0       0
  2345 ;;      Locals:         0       0       2       0       0
  2346 ;;      Temps:          0       0       4       0       0
  2347 ;;      Totals:         0       0      10       0       0
  2348 ;;Total ram usage:       10 bytes
  2349 ;; Hardware stack levels used: 1
  2350 ;; Hardware stack levels required when called: 1
  2351 ;; This function calls:
  2352 ;;		Nothing
  2353 ;; This function is called by:
  2354 ;;		_PWM1_Duty
  2355 ;;		_PWM2_Duty
  2356 ;;		_PID
  2357 ;; This function uses a non-reentrant model
  2358 ;;
  2359                           
  2360     0F0D                     ___fltol:	
  2361                           ;psect for function ___fltol
  2362                           
  2363     0F0D                     l2280:	
  2364                           ;incstack = 0
  2365                           ; Regs used in ___fltol: [wreg+status,2+status,0]
  2366                           
  2367     0F0D  1003               	clrc
  2368     0F0E  1683               	bsf	3,5	;RP0=1, select bank1
  2369     0F0F  1303               	bcf	3,6	;RP1=0, select bank1
  2370     0F10  0D52               	rlf	(___fltol@f1+2)^(0+128),w
  2371     0F11  0D53               	rlf	(___fltol@f1+3)^(0+128),w
  2372     0F12  00D9               	movwf	___fltol@exp1^(0+128)
  2373     0F13  0859               	movf	___fltol@exp1^(0+128),w
  2374     0F14  1D03               	btfss	3,2
  2375     0F15  2F17               	goto	u3391
  2376     0F16  2F18               	goto	u3390
  2377     0F17                     u3391:
  2378     0F17  2F21               	goto	l2286
  2379     0F18                     u3390:
  2380     0F18                     l2282:
  2381     0F18  3000               	movlw	0
  2382     0F19  00D3               	movwf	(?___fltol+3)^(0+128)
  2383     0F1A  3000               	movlw	0
  2384     0F1B  00D2               	movwf	(?___fltol+2)^(0+128)
  2385     0F1C  3000               	movlw	0
  2386     0F1D  00D1               	movwf	(?___fltol+1)^(0+128)
  2387     0F1E  3000               	movlw	0
  2388     0F1F  00D0               	movwf	?___fltol^(0+128)
  2389     0F20  2F84               	goto	l500
  2390     0F21                     l2286:
  2391     0F21  0850               	movf	___fltol@f1^(0+128),w
  2392     0F22  00D4               	movwf	??___fltol^(0+128)
  2393     0F23  0851               	movf	(___fltol@f1+1)^(0+128),w
  2394     0F24  00D5               	movwf	(??___fltol^(0+128)+1)
  2395     0F25  0852               	movf	(___fltol@f1+2)^(0+128),w
  2396     0F26  00D6               	movwf	(??___fltol^(0+128)+2)
  2397     0F27  0853               	movf	(___fltol@f1+3)^(0+128),w
  2398     0F28  00D7               	movwf	(??___fltol^(0+128)+3)
  2399     0F29  301F               	movlw	31
  2400     0F2A                     u3405:
  2401     0F2A  1003               	clrc
  2402     0F2B  0CD7               	rrf	(??___fltol^(0+128)+3),f
  2403     0F2C  0CD6               	rrf	(??___fltol^(0+128)+2),f
  2404     0F2D  0CD5               	rrf	(??___fltol^(0+128)+1),f
  2405     0F2E  0CD4               	rrf	??___fltol^(0+128),f
  2406     0F2F                     u3400:
  2407     0F2F  3EFF               	addlw	-1
  2408     0F30  1D03               	skipz
  2409     0F31  2F2A               	goto	u3405
  2410     0F32  0854               	movf	??___fltol^(0+128),w
  2411     0F33  00D8               	movwf	___fltol@sign1^(0+128)
  2412     0F34                     l2288:
  2413     0F34  17D2               	bsf	(___fltol@f1^(0+128)+2),7
  2414     0F35                     l2290:
  2415     0F35  30FF               	movlw	255
  2416     0F36  05D0               	andwf	___fltol@f1^(0+128),f
  2417     0F37  30FF               	movlw	255
  2418     0F38  05D1               	andwf	(___fltol@f1+1)^(0+128),f
  2419     0F39  30FF               	movlw	255
  2420     0F3A  05D2               	andwf	(___fltol@f1+2)^(0+128),f
  2421     0F3B  3000               	movlw	0
  2422     0F3C  05D3               	andwf	(___fltol@f1+3)^(0+128),f
  2423     0F3D                     l2292:
  2424     0F3D  3096               	movlw	150
  2425     0F3E  02D9               	subwf	___fltol@exp1^(0+128),f
  2426     0F3F                     l2294:
  2427     0F3F  1FD9               	btfss	___fltol@exp1^(0+128),7
  2428     0F40  2F42               	goto	u3411
  2429     0F41  2F43               	goto	u3410
  2430     0F42                     u3411:
  2431     0F42  2F5D               	goto	l2304
  2432     0F43                     u3410:
  2433     0F43                     l2296:
  2434     0F43  0859               	movf	___fltol@exp1^(0+128),w
  2435     0F44  3A80               	xorlw	128
  2436     0F45  3E97               	addlw	151
  2437     0F46  1803               	skipnc
  2438     0F47  2F49               	goto	u3421
  2439     0F48  2F4A               	goto	u3420
  2440     0F49                     u3421:
  2441     0F49  2F4B               	goto	l2302
  2442     0F4A                     u3420:
  2443     0F4A  2F18               	goto	l2282
  2444     0F4B                     l2302:
  2445     0F4B  3001               	movlw	1
  2446     0F4C                     u3435:
  2447     0F4C  1003               	clrc
  2448     0F4D  0CD3               	rrf	(___fltol@f1+3)^(0+128),f
  2449     0F4E  0CD2               	rrf	(___fltol@f1+2)^(0+128),f
  2450     0F4F  0CD1               	rrf	(___fltol@f1+1)^(0+128),f
  2451     0F50  0CD0               	rrf	___fltol@f1^(0+128),f
  2452     0F51  3EFF               	addlw	-1
  2453     0F52  1D03               	skipz
  2454     0F53  2F4C               	goto	u3435
  2455     0F54  3001               	movlw	1
  2456     0F55  00D4               	movwf	??___fltol^(0+128)
  2457     0F56  0854               	movf	??___fltol^(0+128),w
  2458     0F57  07D9               	addwf	___fltol@exp1^(0+128),f
  2459     0F58  1D03               	btfss	3,2
  2460     0F59  2F5B               	goto	u3441
  2461     0F5A  2F5C               	goto	u3440
  2462     0F5B                     u3441:
  2463     0F5B  2F4B               	goto	l2302
  2464     0F5C                     u3440:
  2465     0F5C  2F74               	goto	l2312
  2466     0F5D                     l2304:
  2467     0F5D  3020               	movlw	32
  2468     0F5E  0259               	subwf	___fltol@exp1^(0+128),w
  2469     0F5F  1C03               	skipc
  2470     0F60  2F62               	goto	u3451
  2471     0F61  2F63               	goto	u3450
  2472     0F62                     u3451:
  2473     0F62  2F6F               	goto	l507
  2474     0F63                     u3450:
  2475     0F63  2F18               	goto	l2282
  2476     0F64                     l2310:
  2477     0F64  3001               	movlw	1
  2478     0F65  00D4               	movwf	??___fltol^(0+128)
  2479     0F66                     u3465:
  2480     0F66  1003               	clrc
  2481     0F67  0DD0               	rlf	___fltol@f1^(0+128),f
  2482     0F68  0DD1               	rlf	(___fltol@f1+1)^(0+128),f
  2483     0F69  0DD2               	rlf	(___fltol@f1+2)^(0+128),f
  2484     0F6A  0DD3               	rlf	(___fltol@f1+3)^(0+128),f
  2485     0F6B  0BD4               	decfsz	??___fltol^(0+128),f
  2486     0F6C  2F66               	goto	u3465
  2487     0F6D  3001               	movlw	1
  2488     0F6E  02D9               	subwf	___fltol@exp1^(0+128),f
  2489     0F6F                     l507:
  2490     0F6F  0859               	movf	___fltol@exp1^(0+128),w
  2491     0F70  1D03               	btfss	3,2
  2492     0F71  2F73               	goto	u3471
  2493     0F72  2F74               	goto	u3470
  2494     0F73                     u3471:
  2495     0F73  2F64               	goto	l2310
  2496     0F74                     u3470:
  2497     0F74                     l2312:
  2498     0F74  0858               	movf	___fltol@sign1^(0+128),w
  2499     0F75  1903               	btfsc	3,2
  2500     0F76  2F78               	goto	u3481
  2501     0F77  2F79               	goto	u3480
  2502     0F78                     u3481:
  2503     0F78  2F84               	goto	l510
  2504     0F79                     u3480:
  2505     0F79                     l2314:
  2506     0F79  09D0               	comf	___fltol@f1^(0+128),f
  2507     0F7A  09D1               	comf	(___fltol@f1+1)^(0+128),f
  2508     0F7B  09D2               	comf	(___fltol@f1+2)^(0+128),f
  2509     0F7C  09D3               	comf	(___fltol@f1+3)^(0+128),f
  2510     0F7D  0AD0               	incf	___fltol@f1^(0+128),f
  2511     0F7E  1903               	skipnz
  2512     0F7F  0AD1               	incf	(___fltol@f1+1)^(0+128),f
  2513     0F80  1903               	skipnz
  2514     0F81  0AD2               	incf	(___fltol@f1+2)^(0+128),f
  2515     0F82  1903               	skipnz
  2516     0F83  0AD3               	incf	(___fltol@f1+3)^(0+128),f
  2517     0F84                     l510:
  2518     0F84                     l500:
  2519     0F84  0008               	return
  2520     0F85                     __end_of___fltol:
  2521                           
  2522                           	psect	text12
  2523     0043                     __ptext12:	
  2524 ;; *************** function ___flmul *****************
  2525 ;; Defined at:
  2526 ;;		line 8 in file "C:\Program Files\Microchip\xc8\v2.40\pic\sources\c90\common\sprcmul.c"
  2527 ;; Parameters:    Size  Location     Type
  2528 ;;  b               4   53[BANK0 ] long 
  2529 ;;  a               4   57[BANK0 ] long 
  2530 ;; Auto vars:     Size  Location     Type
  2531 ;;  prod            4   73[BANK0 ] struct .
  2532 ;;  grs             4   68[BANK0 ] unsigned long 
  2533 ;;  temp            2   77[BANK0 ] struct .
  2534 ;;  bexp            1   72[BANK0 ] unsigned char 
  2535 ;;  aexp            1   67[BANK0 ] unsigned char 
  2536 ;;  sign            1   66[BANK0 ] unsigned char 
  2537 ;; Return value:  Size  Location     Type
  2538 ;;                  4   53[BANK0 ] unsigned char 
  2539 ;; Registers used:
  2540 ;;		wreg, status,2, status,0, btemp+1, pclath, cstack
  2541 ;; Tracked objects:
  2542 ;;		On entry : 0/0
  2543 ;;		On exit  : 0/0
  2544 ;;		Unchanged: 0/0
  2545 ;; Data sizes:     COMMON   BANK0   BANK1   BANK3   BANK2
  2546 ;;      Params:         0       8       0       0       0
  2547 ;;      Locals:         0      13       0       0       0
  2548 ;;      Temps:          0       5       0       0       0
  2549 ;;      Totals:         0      26       0       0       0
  2550 ;;Total ram usage:       26 bytes
  2551 ;; Hardware stack levels used: 1
  2552 ;; Hardware stack levels required when called: 2
  2553 ;; This function calls:
  2554 ;;		__Umul8_16
  2555 ;; This function is called by:
  2556 ;;		_PWM1_Duty
  2557 ;;		_PWM2_Duty
  2558 ;;		_PID
  2559 ;; This function uses a non-reentrant model
  2560 ;;
  2561                           
  2562     0043                     ___flmul:	
  2563                           ;psect for function ___flmul
  2564                           
  2565     0043                     l2316:	
  2566                           ;incstack = 0
  2567                           ; Regs used in ___flmul: [wreg+status,2+status,0+btemp+1+pclath+cstack]
  2568                           
  2569     0043  1283               	bcf	3,5	;RP0=0, select bank0
  2570     0044  1303               	bcf	3,6	;RP1=0, select bank0
  2571     0045  0858               	movf	___flmul@b+3,w
  2572     0046  3980               	andlw	128
  2573     0047  00E2               	movwf	___flmul@sign
  2574     0048                     l2318:
  2575     0048  0858               	movf	___flmul@b+3,w
  2576     0049  00DD               	movwf	??___flmul
  2577     004A  075D               	addwf	??___flmul,w
  2578     004B  00E8               	movwf	___flmul@bexp
  2579     004C                     l2320:
  2580     004C  1FD7               	btfss	___flmul@b+2,7
  2581     004D  284F               	goto	u3491
  2582     004E  2850               	goto	u3490
  2583     004F                     u3491:
  2584     004F  2851               	goto	l2324
  2585     0050                     u3490:
  2586     0050                     l2322:
  2587     0050  1468               	bsf	___flmul@bexp,0
  2588     0051                     l2324:
  2589     0051  0868               	movf	___flmul@bexp,w
  2590     0052  1903               	btfsc	3,2
  2591     0053  2855               	goto	u3501
  2592     0054  2856               	goto	u3500
  2593     0055                     u3501:
  2594     0055  2865               	goto	l2332
  2595     0056                     u3500:
  2596     0056                     l2326:
  2597     0056  0A68               	incf	___flmul@bexp,w
  2598     0057  1D03               	btfss	3,2
  2599     0058  285A               	goto	u3511
  2600     0059  285B               	goto	u3510
  2601     005A                     u3511:
  2602     005A  2863               	goto	l2330
  2603     005B                     u3510:
  2604     005B                     l2328:
  2605     005B  3000               	movlw	0
  2606     005C  00D8               	movwf	___flmul@b+3
  2607     005D  3000               	movlw	0
  2608     005E  00D7               	movwf	___flmul@b+2
  2609     005F  3000               	movlw	0
  2610     0060  00D6               	movwf	___flmul@b+1
  2611     0061  3000               	movlw	0
  2612     0062  00D5               	movwf	___flmul@b
  2613     0063                     l2330:
  2614     0063  17D7               	bsf	___flmul@b+2,7
  2615     0064  286D               	goto	l2334
  2616     0065                     l2332:
  2617     0065  3000               	movlw	0
  2618     0066  00D8               	movwf	___flmul@b+3
  2619     0067  3000               	movlw	0
  2620     0068  00D7               	movwf	___flmul@b+2
  2621     0069  3000               	movlw	0
  2622     006A  00D6               	movwf	___flmul@b+1
  2623     006B  3000               	movlw	0
  2624     006C  00D5               	movwf	___flmul@b
  2625     006D                     l2334:
  2626     006D  085C               	movf	___flmul@a+3,w
  2627     006E  3980               	andlw	128
  2628     006F  00DD               	movwf	??___flmul
  2629     0070  085D               	movf	??___flmul,w
  2630     0071  06E2               	xorwf	___flmul@sign,f
  2631     0072                     l2336:
  2632     0072  085C               	movf	___flmul@a+3,w
  2633     0073  00DD               	movwf	??___flmul
  2634     0074  075D               	addwf	??___flmul,w
  2635     0075  00E3               	movwf	___flmul@aexp
  2636     0076                     l2338:
  2637     0076  1FDB               	btfss	___flmul@a+2,7
  2638     0077  2879               	goto	u3521
  2639     0078  287A               	goto	u3520
  2640     0079                     u3521:
  2641     0079  287B               	goto	l2342
  2642     007A                     u3520:
  2643     007A                     l2340:
  2644     007A  1463               	bsf	___flmul@aexp,0
  2645     007B                     l2342:
  2646     007B  0863               	movf	___flmul@aexp,w
  2647     007C  1903               	btfsc	3,2
  2648     007D  287F               	goto	u3531
  2649     007E  2880               	goto	u3530
  2650     007F                     u3531:
  2651     007F  288F               	goto	l2350
  2652     0080                     u3530:
  2653     0080                     l2344:
  2654     0080  0A63               	incf	___flmul@aexp,w
  2655     0081  1D03               	btfss	3,2
  2656     0082  2884               	goto	u3541
  2657     0083  2885               	goto	u3540
  2658     0084                     u3541:
  2659     0084  288D               	goto	l2348
  2660     0085                     u3540:
  2661     0085                     l2346:
  2662     0085  3000               	movlw	0
  2663     0086  00DC               	movwf	___flmul@a+3
  2664     0087  3000               	movlw	0
  2665     0088  00DB               	movwf	___flmul@a+2
  2666     0089  3000               	movlw	0
  2667     008A  00DA               	movwf	___flmul@a+1
  2668     008B  3000               	movlw	0
  2669     008C  00D9               	movwf	___flmul@a
  2670     008D                     l2348:
  2671     008D  17DB               	bsf	___flmul@a+2,7
  2672     008E  2897               	goto	l2352
  2673     008F                     l2350:
  2674     008F  3000               	movlw	0
  2675     0090  00DC               	movwf	___flmul@a+3
  2676     0091  3000               	movlw	0
  2677     0092  00DB               	movwf	___flmul@a+2
  2678     0093  3000               	movlw	0
  2679     0094  00DA               	movwf	___flmul@a+1
  2680     0095  3000               	movlw	0
  2681     0096  00D9               	movwf	___flmul@a
  2682     0097                     l2352:
  2683     0097  0863               	movf	___flmul@aexp,w
  2684     0098  1903               	btfsc	3,2
  2685     0099  289B               	goto	u3551
  2686     009A  289C               	goto	u3550
  2687     009B                     u3551:
  2688     009B  28A1               	goto	l2356
  2689     009C                     u3550:
  2690     009C                     l2354:
  2691     009C  0868               	movf	___flmul@bexp,w
  2692     009D  1D03               	btfss	3,2
  2693     009E  28A0               	goto	u3561
  2694     009F  28A1               	goto	u3560
  2695     00A0                     u3561:
  2696     00A0  28AA               	goto	l2360
  2697     00A1                     u3560:
  2698     00A1                     l2356:
  2699     00A1  3000               	movlw	0
  2700     00A2  00D8               	movwf	?___flmul+3
  2701     00A3  3000               	movlw	0
  2702     00A4  00D7               	movwf	?___flmul+2
  2703     00A5  3000               	movlw	0
  2704     00A6  00D6               	movwf	?___flmul+1
  2705     00A7  3000               	movlw	0
  2706     00A8  00D5               	movwf	?___flmul
  2707     00A9  2B87               	goto	l703
  2708     00AA                     l2360:
  2709     00AA  0855               	movf	___flmul@b,w
  2710     00AB  00F2               	movwf	__Umul8_16@multiplicand
  2711     00AC  085B               	movf	___flmul@a+2,w
  2712     00AD  120A  158A  25B9  120A  118A  	fcall	__Umul8_16
  2713     00B2  0873               	movf	?__Umul8_16+1,w
  2714     00B3  1283               	bcf	3,5	;RP0=0, select bank0
  2715     00B4  1303               	bcf	3,6	;RP1=0, select bank0
  2716     00B5  00EE               	movwf	___flmul@temp+1
  2717     00B6  0872               	movf	?__Umul8_16,w
  2718     00B7  00ED               	movwf	___flmul@temp
  2719     00B8                     l2362:
  2720     00B8  086D               	movf	___flmul@temp,w
  2721     00B9  00DD               	movwf	??___flmul
  2722     00BA  01DE               	clrf	??___flmul+1
  2723     00BB  01DF               	clrf	??___flmul+2
  2724     00BC  01E0               	clrf	??___flmul+3
  2725     00BD  0860               	movf	??___flmul+3,w
  2726     00BE  00E7               	movwf	___flmul@grs+3
  2727     00BF  085F               	movf	??___flmul+2,w
  2728     00C0  00E6               	movwf	___flmul@grs+2
  2729     00C1  085E               	movf	??___flmul+1,w
  2730     00C2  00E5               	movwf	___flmul@grs+1
  2731     00C3  085D               	movf	??___flmul,w
  2732     00C4  00E4               	movwf	___flmul@grs
  2733     00C5                     l2364:
  2734     00C5  086E               	movf	___flmul@temp+1,w
  2735     00C6  00DD               	movwf	??___flmul
  2736     00C7  01DE               	clrf	??___flmul+1
  2737     00C8  01DF               	clrf	??___flmul+2
  2738     00C9  01E0               	clrf	??___flmul+3
  2739     00CA  0860               	movf	??___flmul+3,w
  2740     00CB  00EC               	movwf	___flmul@prod+3
  2741     00CC  085F               	movf	??___flmul+2,w
  2742     00CD  00EB               	movwf	___flmul@prod+2
  2743     00CE  085E               	movf	??___flmul+1,w
  2744     00CF  00EA               	movwf	___flmul@prod+1
  2745     00D0  085D               	movf	??___flmul,w
  2746     00D1  00E9               	movwf	___flmul@prod
  2747     00D2  0856               	movf	___flmul@b+1,w
  2748     00D3  00F2               	movwf	__Umul8_16@multiplicand
  2749     00D4  085A               	movf	___flmul@a+1,w
  2750     00D5  120A  158A  25B9  120A  118A  	fcall	__Umul8_16
  2751     00DA  0873               	movf	?__Umul8_16+1,w
  2752     00DB  1283               	bcf	3,5	;RP0=0, select bank0
  2753     00DC  1303               	bcf	3,6	;RP1=0, select bank0
  2754     00DD  00EE               	movwf	___flmul@temp+1
  2755     00DE  0872               	movf	?__Umul8_16,w
  2756     00DF  00ED               	movwf	___flmul@temp
  2757     00E0                     l2366:
  2758     00E0  086D               	movf	___flmul@temp,w
  2759     00E1  00DD               	movwf	??___flmul
  2760     00E2  01DE               	clrf	??___flmul+1
  2761     00E3  01DF               	clrf	??___flmul+2
  2762     00E4  01E0               	clrf	??___flmul+3
  2763     00E5  085D               	movf	??___flmul,w
  2764     00E6  07E4               	addwf	___flmul@grs,f
  2765     00E7  085E               	movf	??___flmul+1,w
  2766     00E8  1103               	clrz
  2767     00E9  1803               	skipnc
  2768     00EA  3E01               	addlw	1
  2769     00EB  1903               	skipnz
  2770     00EC  28EE               	goto	u3571
  2771     00ED  07E5               	addwf	___flmul@grs+1,f
  2772     00EE                     u3571:
  2773     00EE  085F               	movf	??___flmul+2,w
  2774     00EF  1103               	clrz
  2775     00F0  1803               	skipnc
  2776     00F1  3E01               	addlw	1
  2777     00F2  1903               	skipnz
  2778     00F3  28F5               	goto	u3572
  2779     00F4  07E6               	addwf	___flmul@grs+2,f
  2780     00F5                     u3572:
  2781     00F5  0860               	movf	??___flmul+3,w
  2782     00F6  1103               	clrz
  2783     00F7  1803               	skipnc
  2784     00F8  3E01               	addlw	1
  2785     00F9  1903               	skipnz
  2786     00FA  28FC               	goto	u3573
  2787     00FB  07E7               	addwf	___flmul@grs+3,f
  2788     00FC                     u3573:
  2789     00FC                     l2368:
  2790     00FC  086E               	movf	___flmul@temp+1,w
  2791     00FD  00DD               	movwf	??___flmul
  2792     00FE  01DE               	clrf	??___flmul+1
  2793     00FF  01DF               	clrf	??___flmul+2
  2794     0100  01E0               	clrf	??___flmul+3
  2795     0101  085D               	movf	??___flmul,w
  2796     0102  07E9               	addwf	___flmul@prod,f
  2797     0103  085E               	movf	??___flmul+1,w
  2798     0104  1103               	clrz
  2799     0105  1803               	skipnc
  2800     0106  3E01               	addlw	1
  2801     0107  1903               	skipnz
  2802     0108  290A               	goto	u3581
  2803     0109  07EA               	addwf	___flmul@prod+1,f
  2804     010A                     u3581:
  2805     010A  085F               	movf	??___flmul+2,w
  2806     010B  1103               	clrz
  2807     010C  1803               	skipnc
  2808     010D  3E01               	addlw	1
  2809     010E  1903               	skipnz
  2810     010F  2911               	goto	u3582
  2811     0110  07EB               	addwf	___flmul@prod+2,f
  2812     0111                     u3582:
  2813     0111  0860               	movf	??___flmul+3,w
  2814     0112  1103               	clrz
  2815     0113  1803               	skipnc
  2816     0114  3E01               	addlw	1
  2817     0115  1903               	skipnz
  2818     0116  2918               	goto	u3583
  2819     0117  07EC               	addwf	___flmul@prod+3,f
  2820     0118                     u3583:
  2821     0118  0857               	movf	___flmul@b+2,w
  2822     0119  00F2               	movwf	__Umul8_16@multiplicand
  2823     011A  0859               	movf	___flmul@a,w
  2824     011B  120A  158A  25B9  120A  118A  	fcall	__Umul8_16
  2825     0120  0873               	movf	?__Umul8_16+1,w
  2826     0121  1283               	bcf	3,5	;RP0=0, select bank0
  2827     0122  1303               	bcf	3,6	;RP1=0, select bank0
  2828     0123  00EE               	movwf	___flmul@temp+1
  2829     0124  0872               	movf	?__Umul8_16,w
  2830     0125  00ED               	movwf	___flmul@temp
  2831     0126                     l2370:
  2832     0126  086D               	movf	___flmul@temp,w
  2833     0127  00DD               	movwf	??___flmul
  2834     0128  01DE               	clrf	??___flmul+1
  2835     0129  01DF               	clrf	??___flmul+2
  2836     012A  01E0               	clrf	??___flmul+3
  2837     012B  085D               	movf	??___flmul,w
  2838     012C  07E4               	addwf	___flmul@grs,f
  2839     012D  085E               	movf	??___flmul+1,w
  2840     012E  1103               	clrz
  2841     012F  1803               	skipnc
  2842     0130  3E01               	addlw	1
  2843     0131  1903               	skipnz
  2844     0132  2934               	goto	u3591
  2845     0133  07E5               	addwf	___flmul@grs+1,f
  2846     0134                     u3591:
  2847     0134  085F               	movf	??___flmul+2,w
  2848     0135  1103               	clrz
  2849     0136  1803               	skipnc
  2850     0137  3E01               	addlw	1
  2851     0138  1903               	skipnz
  2852     0139  293B               	goto	u3592
  2853     013A  07E6               	addwf	___flmul@grs+2,f
  2854     013B                     u3592:
  2855     013B  0860               	movf	??___flmul+3,w
  2856     013C  1103               	clrz
  2857     013D  1803               	skipnc
  2858     013E  3E01               	addlw	1
  2859     013F  1903               	skipnz
  2860     0140  2942               	goto	u3593
  2861     0141  07E7               	addwf	___flmul@grs+3,f
  2862     0142                     u3593:
  2863     0142                     l2372:
  2864     0142  086E               	movf	___flmul@temp+1,w
  2865     0143  00DD               	movwf	??___flmul
  2866     0144  01DE               	clrf	??___flmul+1
  2867     0145  01DF               	clrf	??___flmul+2
  2868     0146  01E0               	clrf	??___flmul+3
  2869     0147  085D               	movf	??___flmul,w
  2870     0148  07E9               	addwf	___flmul@prod,f
  2871     0149  085E               	movf	??___flmul+1,w
  2872     014A  1103               	clrz
  2873     014B  1803               	skipnc
  2874     014C  3E01               	addlw	1
  2875     014D  1903               	skipnz
  2876     014E  2950               	goto	u3601
  2877     014F  07EA               	addwf	___flmul@prod+1,f
  2878     0150                     u3601:
  2879     0150  085F               	movf	??___flmul+2,w
  2880     0151  1103               	clrz
  2881     0152  1803               	skipnc
  2882     0153  3E01               	addlw	1
  2883     0154  1903               	skipnz
  2884     0155  2957               	goto	u3602
  2885     0156  07EB               	addwf	___flmul@prod+2,f
  2886     0157                     u3602:
  2887     0157  0860               	movf	??___flmul+3,w
  2888     0158  1103               	clrz
  2889     0159  1803               	skipnc
  2890     015A  3E01               	addlw	1
  2891     015B  1903               	skipnz
  2892     015C  295E               	goto	u3603
  2893     015D  07EC               	addwf	___flmul@prod+3,f
  2894     015E                     u3603:
  2895     015E                     l2374:
  2896     015E  3008               	movlw	8
  2897     015F  00DD               	movwf	??___flmul
  2898     0160                     u3615:
  2899     0160  1003               	clrc
  2900     0161  0DE4               	rlf	___flmul@grs,f
  2901     0162  0DE5               	rlf	___flmul@grs+1,f
  2902     0163  0DE6               	rlf	___flmul@grs+2,f
  2903     0164  0DE7               	rlf	___flmul@grs+3,f
  2904     0165  0BDD               	decfsz	??___flmul,f
  2905     0166  2960               	goto	u3615
  2906     0167                     l2376:
  2907     0167  0856               	movf	___flmul@b+1,w
  2908     0168  00F2               	movwf	__Umul8_16@multiplicand
  2909     0169  0859               	movf	___flmul@a,w
  2910     016A  120A  158A  25B9  120A  118A  	fcall	__Umul8_16
  2911     016F  0873               	movf	?__Umul8_16+1,w
  2912     0170  1283               	bcf	3,5	;RP0=0, select bank0
  2913     0171  1303               	bcf	3,6	;RP1=0, select bank0
  2914     0172  00EE               	movwf	___flmul@temp+1
  2915     0173  0872               	movf	?__Umul8_16,w
  2916     0174  00ED               	movwf	___flmul@temp
  2917     0175                     l2378:
  2918     0175  086D               	movf	___flmul@temp,w
  2919     0176  00DD               	movwf	??___flmul
  2920     0177  086E               	movf	___flmul@temp+1,w
  2921     0178  00DE               	movwf	??___flmul+1
  2922     0179  01DF               	clrf	??___flmul+2
  2923     017A  01E0               	clrf	??___flmul+3
  2924     017B  085D               	movf	??___flmul,w
  2925     017C  07E4               	addwf	___flmul@grs,f
  2926     017D  085E               	movf	??___flmul+1,w
  2927     017E  1103               	clrz
  2928     017F  1803               	skipnc
  2929     0180  3E01               	addlw	1
  2930     0181  1903               	skipnz
  2931     0182  2984               	goto	u3621
  2932     0183  07E5               	addwf	___flmul@grs+1,f
  2933     0184                     u3621:
  2934     0184  085F               	movf	??___flmul+2,w
  2935     0185  1103               	clrz
  2936     0186  1803               	skipnc
  2937     0187  3E01               	addlw	1
  2938     0188  1903               	skipnz
  2939     0189  298B               	goto	u3622
  2940     018A  07E6               	addwf	___flmul@grs+2,f
  2941     018B                     u3622:
  2942     018B  0860               	movf	??___flmul+3,w
  2943     018C  1103               	clrz
  2944     018D  1803               	skipnc
  2945     018E  3E01               	addlw	1
  2946     018F  1903               	skipnz
  2947     0190  2992               	goto	u3623
  2948     0191  07E7               	addwf	___flmul@grs+3,f
  2949     0192                     u3623:
  2950     0192                     l2380:
  2951     0192  0855               	movf	___flmul@b,w
  2952     0193  00F2               	movwf	__Umul8_16@multiplicand
  2953     0194  085A               	movf	___flmul@a+1,w
  2954     0195  120A  158A  25B9  120A  118A  	fcall	__Umul8_16
  2955     019A  0873               	movf	?__Umul8_16+1,w
  2956     019B  1283               	bcf	3,5	;RP0=0, select bank0
  2957     019C  1303               	bcf	3,6	;RP1=0, select bank0
  2958     019D  00EE               	movwf	___flmul@temp+1
  2959     019E  0872               	movf	?__Umul8_16,w
  2960     019F  00ED               	movwf	___flmul@temp
  2961     01A0                     l2382:
  2962     01A0  086D               	movf	___flmul@temp,w
  2963     01A1  00DD               	movwf	??___flmul
  2964     01A2  086E               	movf	___flmul@temp+1,w
  2965     01A3  00DE               	movwf	??___flmul+1
  2966     01A4  01DF               	clrf	??___flmul+2
  2967     01A5  01E0               	clrf	??___flmul+3
  2968     01A6  085D               	movf	??___flmul,w
  2969     01A7  07E4               	addwf	___flmul@grs,f
  2970     01A8  085E               	movf	??___flmul+1,w
  2971     01A9  1103               	clrz
  2972     01AA  1803               	skipnc
  2973     01AB  3E01               	addlw	1
  2974     01AC  1903               	skipnz
  2975     01AD  29AF               	goto	u3631
  2976     01AE  07E5               	addwf	___flmul@grs+1,f
  2977     01AF                     u3631:
  2978     01AF  085F               	movf	??___flmul+2,w
  2979     01B0  1103               	clrz
  2980     01B1  1803               	skipnc
  2981     01B2  3E01               	addlw	1
  2982     01B3  1903               	skipnz
  2983     01B4  29B6               	goto	u3632
  2984     01B5  07E6               	addwf	___flmul@grs+2,f
  2985     01B6                     u3632:
  2986     01B6  0860               	movf	??___flmul+3,w
  2987     01B7  1103               	clrz
  2988     01B8  1803               	skipnc
  2989     01B9  3E01               	addlw	1
  2990     01BA  1903               	skipnz
  2991     01BB  29BD               	goto	u3633
  2992     01BC  07E7               	addwf	___flmul@grs+3,f
  2993     01BD                     u3633:
  2994     01BD                     l2384:
  2995     01BD  3008               	movlw	8
  2996     01BE  00DD               	movwf	??___flmul
  2997     01BF                     u3645:
  2998     01BF  1003               	clrc
  2999     01C0  0DE4               	rlf	___flmul@grs,f
  3000     01C1  0DE5               	rlf	___flmul@grs+1,f
  3001     01C2  0DE6               	rlf	___flmul@grs+2,f
  3002     01C3  0DE7               	rlf	___flmul@grs+3,f
  3003     01C4  0BDD               	decfsz	??___flmul,f
  3004     01C5  29BF               	goto	u3645
  3005     01C6  0855               	movf	___flmul@b,w
  3006     01C7  00F2               	movwf	__Umul8_16@multiplicand
  3007     01C8  0859               	movf	___flmul@a,w
  3008     01C9  120A  158A  25B9  120A  118A  	fcall	__Umul8_16
  3009     01CE  0873               	movf	?__Umul8_16+1,w
  3010     01CF  1283               	bcf	3,5	;RP0=0, select bank0
  3011     01D0  1303               	bcf	3,6	;RP1=0, select bank0
  3012     01D1  00EE               	movwf	___flmul@temp+1
  3013     01D2  0872               	movf	?__Umul8_16,w
  3014     01D3  00ED               	movwf	___flmul@temp
  3015     01D4                     l2386:
  3016     01D4  086D               	movf	___flmul@temp,w
  3017     01D5  00DD               	movwf	??___flmul
  3018     01D6  086E               	movf	___flmul@temp+1,w
  3019     01D7  00DE               	movwf	??___flmul+1
  3020     01D8  01DF               	clrf	??___flmul+2
  3021     01D9  01E0               	clrf	??___flmul+3
  3022     01DA  085D               	movf	??___flmul,w
  3023     01DB  07E4               	addwf	___flmul@grs,f
  3024     01DC  085E               	movf	??___flmul+1,w
  3025     01DD  1103               	clrz
  3026     01DE  1803               	skipnc
  3027     01DF  3E01               	addlw	1
  3028     01E0  1903               	skipnz
  3029     01E1  29E3               	goto	u3651
  3030     01E2  07E5               	addwf	___flmul@grs+1,f
  3031     01E3                     u3651:
  3032     01E3  085F               	movf	??___flmul+2,w
  3033     01E4  1103               	clrz
  3034     01E5  1803               	skipnc
  3035     01E6  3E01               	addlw	1
  3036     01E7  1903               	skipnz
  3037     01E8  29EA               	goto	u3652
  3038     01E9  07E6               	addwf	___flmul@grs+2,f
  3039     01EA                     u3652:
  3040     01EA  0860               	movf	??___flmul+3,w
  3041     01EB  1103               	clrz
  3042     01EC  1803               	skipnc
  3043     01ED  3E01               	addlw	1
  3044     01EE  1903               	skipnz
  3045     01EF  29F1               	goto	u3653
  3046     01F0  07E7               	addwf	___flmul@grs+3,f
  3047     01F1                     u3653:
  3048     01F1                     l2388:
  3049     01F1  0856               	movf	___flmul@b+1,w
  3050     01F2  00F2               	movwf	__Umul8_16@multiplicand
  3051     01F3  085B               	movf	___flmul@a+2,w
  3052     01F4  120A  158A  25B9  120A  118A  	fcall	__Umul8_16
  3053     01F9  0873               	movf	?__Umul8_16+1,w
  3054     01FA  1283               	bcf	3,5	;RP0=0, select bank0
  3055     01FB  1303               	bcf	3,6	;RP1=0, select bank0
  3056     01FC  00EE               	movwf	___flmul@temp+1
  3057     01FD  0872               	movf	?__Umul8_16,w
  3058     01FE  00ED               	movwf	___flmul@temp
  3059     01FF  086D               	movf	___flmul@temp,w
  3060     0200  00DD               	movwf	??___flmul
  3061     0201  086E               	movf	___flmul@temp+1,w
  3062     0202  00DE               	movwf	??___flmul+1
  3063     0203  01DF               	clrf	??___flmul+2
  3064     0204  01E0               	clrf	??___flmul+3
  3065     0205  085D               	movf	??___flmul,w
  3066     0206  07E9               	addwf	___flmul@prod,f
  3067     0207  085E               	movf	??___flmul+1,w
  3068     0208  1103               	clrz
  3069     0209  1803               	skipnc
  3070     020A  3E01               	addlw	1
  3071     020B  1903               	skipnz
  3072     020C  2A0E               	goto	u3661
  3073     020D  07EA               	addwf	___flmul@prod+1,f
  3074     020E                     u3661:
  3075     020E  085F               	movf	??___flmul+2,w
  3076     020F  1103               	clrz
  3077     0210  1803               	skipnc
  3078     0211  3E01               	addlw	1
  3079     0212  1903               	skipnz
  3080     0213  2A15               	goto	u3662
  3081     0214  07EB               	addwf	___flmul@prod+2,f
  3082     0215                     u3662:
  3083     0215  0860               	movf	??___flmul+3,w
  3084     0216  1103               	clrz
  3085     0217  1803               	skipnc
  3086     0218  3E01               	addlw	1
  3087     0219  1903               	skipnz
  3088     021A  2A1C               	goto	u3663
  3089     021B  07EC               	addwf	___flmul@prod+3,f
  3090     021C                     u3663:
  3091     021C                     l2390:
  3092     021C  0857               	movf	___flmul@b+2,w
  3093     021D  00F2               	movwf	__Umul8_16@multiplicand
  3094     021E  085A               	movf	___flmul@a+1,w
  3095     021F  120A  158A  25B9  120A  118A  	fcall	__Umul8_16
  3096     0224  0873               	movf	?__Umul8_16+1,w
  3097     0225  1283               	bcf	3,5	;RP0=0, select bank0
  3098     0226  1303               	bcf	3,6	;RP1=0, select bank0
  3099     0227  00EE               	movwf	___flmul@temp+1
  3100     0228  0872               	movf	?__Umul8_16,w
  3101     0229  00ED               	movwf	___flmul@temp
  3102     022A                     l2392:
  3103     022A  086D               	movf	___flmul@temp,w
  3104     022B  00DD               	movwf	??___flmul
  3105     022C  086E               	movf	___flmul@temp+1,w
  3106     022D  00DE               	movwf	??___flmul+1
  3107     022E  01DF               	clrf	??___flmul+2
  3108     022F  01E0               	clrf	??___flmul+3
  3109     0230  085D               	movf	??___flmul,w
  3110     0231  07E9               	addwf	___flmul@prod,f
  3111     0232  085E               	movf	??___flmul+1,w
  3112     0233  1103               	clrz
  3113     0234  1803               	skipnc
  3114     0235  3E01               	addlw	1
  3115     0236  1903               	skipnz
  3116     0237  2A39               	goto	u3671
  3117     0238  07EA               	addwf	___flmul@prod+1,f
  3118     0239                     u3671:
  3119     0239  085F               	movf	??___flmul+2,w
  3120     023A  1103               	clrz
  3121     023B  1803               	skipnc
  3122     023C  3E01               	addlw	1
  3123     023D  1903               	skipnz
  3124     023E  2A40               	goto	u3672
  3125     023F  07EB               	addwf	___flmul@prod+2,f
  3126     0240                     u3672:
  3127     0240  0860               	movf	??___flmul+3,w
  3128     0241  1103               	clrz
  3129     0242  1803               	skipnc
  3130     0243  3E01               	addlw	1
  3131     0244  1903               	skipnz
  3132     0245  2A47               	goto	u3673
  3133     0246  07EC               	addwf	___flmul@prod+3,f
  3134     0247                     u3673:
  3135     0247  0857               	movf	___flmul@b+2,w
  3136     0248  00F2               	movwf	__Umul8_16@multiplicand
  3137     0249  085B               	movf	___flmul@a+2,w
  3138     024A  120A  158A  25B9  120A  118A  	fcall	__Umul8_16
  3139     024F  0873               	movf	?__Umul8_16+1,w
  3140     0250  1283               	bcf	3,5	;RP0=0, select bank0
  3141     0251  1303               	bcf	3,6	;RP1=0, select bank0
  3142     0252  00EE               	movwf	___flmul@temp+1
  3143     0253  0872               	movf	?__Umul8_16,w
  3144     0254  00ED               	movwf	___flmul@temp
  3145     0255                     l2394:
  3146     0255  086D               	movf	___flmul@temp,w
  3147     0256  00DD               	movwf	??___flmul
  3148     0257  086E               	movf	___flmul@temp+1,w
  3149     0258  00DE               	movwf	??___flmul+1
  3150     0259  01DF               	clrf	??___flmul+2
  3151     025A  01E0               	clrf	??___flmul+3
  3152     025B  3008               	movlw	8
  3153     025C                     u3685:
  3154     025C  1003               	clrc
  3155     025D  0DDD               	rlf	??___flmul,f
  3156     025E  0DDE               	rlf	??___flmul+1,f
  3157     025F  0DDF               	rlf	??___flmul+2,f
  3158     0260  0DE0               	rlf	??___flmul+3,f
  3159     0261                     u3680:
  3160     0261  3EFF               	addlw	-1
  3161     0262  1D03               	skipz
  3162     0263  2A5C               	goto	u3685
  3163     0264  085D               	movf	??___flmul,w
  3164     0265  07E9               	addwf	___flmul@prod,f
  3165     0266  085E               	movf	??___flmul+1,w
  3166     0267  1103               	clrz
  3167     0268  1803               	skipnc
  3168     0269  3E01               	addlw	1
  3169     026A  1903               	skipnz
  3170     026B  2A6D               	goto	u3691
  3171     026C  07EA               	addwf	___flmul@prod+1,f
  3172     026D                     u3691:
  3173     026D  085F               	movf	??___flmul+2,w
  3174     026E  1103               	clrz
  3175     026F  1803               	skipnc
  3176     0270  3E01               	addlw	1
  3177     0271  1903               	skipnz
  3178     0272  2A74               	goto	u3692
  3179     0273  07EB               	addwf	___flmul@prod+2,f
  3180     0274                     u3692:
  3181     0274  0860               	movf	??___flmul+3,w
  3182     0275  1103               	clrz
  3183     0276  1803               	skipnc
  3184     0277  3E01               	addlw	1
  3185     0278  1903               	skipnz
  3186     0279  2A7B               	goto	u3693
  3187     027A  07EC               	addwf	___flmul@prod+3,f
  3188     027B                     u3693:
  3189     027B                     l2396:
  3190     027B  0864               	movf	___flmul@grs,w
  3191     027C  00DD               	movwf	??___flmul
  3192     027D  0865               	movf	___flmul@grs+1,w
  3193     027E  00DE               	movwf	??___flmul+1
  3194     027F  0866               	movf	___flmul@grs+2,w
  3195     0280  00DF               	movwf	??___flmul+2
  3196     0281  0867               	movf	___flmul@grs+3,w
  3197     0282  00E0               	movwf	??___flmul+3
  3198     0283  3018               	movlw	24
  3199     0284                     u3705:
  3200     0284  1003               	clrc
  3201     0285  0CE0               	rrf	??___flmul+3,f
  3202     0286  0CDF               	rrf	??___flmul+2,f
  3203     0287  0CDE               	rrf	??___flmul+1,f
  3204     0288  0CDD               	rrf	??___flmul,f
  3205     0289                     u3700:
  3206     0289  3EFF               	addlw	-1
  3207     028A  1D03               	skipz
  3208     028B  2A84               	goto	u3705
  3209     028C  085D               	movf	??___flmul,w
  3210     028D  07E9               	addwf	___flmul@prod,f
  3211     028E  085E               	movf	??___flmul+1,w
  3212     028F  1103               	clrz
  3213     0290  1803               	skipnc
  3214     0291  3E01               	addlw	1
  3215     0292  1903               	skipnz
  3216     0293  2A95               	goto	u3711
  3217     0294  07EA               	addwf	___flmul@prod+1,f
  3218     0295                     u3711:
  3219     0295  085F               	movf	??___flmul+2,w
  3220     0296  1103               	clrz
  3221     0297  1803               	skipnc
  3222     0298  3E01               	addlw	1
  3223     0299  1903               	skipnz
  3224     029A  2A9C               	goto	u3712
  3225     029B  07EB               	addwf	___flmul@prod+2,f
  3226     029C                     u3712:
  3227     029C  0860               	movf	??___flmul+3,w
  3228     029D  1103               	clrz
  3229     029E  1803               	skipnc
  3230     029F  3E01               	addlw	1
  3231     02A0  1903               	skipnz
  3232     02A1  2AA3               	goto	u3713
  3233     02A2  07EC               	addwf	___flmul@prod+3,f
  3234     02A3                     u3713:
  3235     02A3                     l2398:
  3236     02A3  3008               	movlw	8
  3237     02A4  00DD               	movwf	??___flmul
  3238     02A5                     u3725:
  3239     02A5  1003               	clrc
  3240     02A6  0DE4               	rlf	___flmul@grs,f
  3241     02A7  0DE5               	rlf	___flmul@grs+1,f
  3242     02A8  0DE6               	rlf	___flmul@grs+2,f
  3243     02A9  0DE7               	rlf	___flmul@grs+3,f
  3244     02AA  0BDD               	decfsz	??___flmul,f
  3245     02AB  2AA5               	goto	u3725
  3246     02AC                     l2400:
  3247     02AC  0868               	movf	___flmul@bexp,w
  3248     02AD  0763               	addwf	___flmul@aexp,w
  3249     02AE  00DD               	movwf	??___flmul
  3250     02AF  01DE               	clrf	??___flmul+1
  3251     02B0  0DDE               	rlf	??___flmul+1,f
  3252     02B1  085D               	movf	??___flmul,w
  3253     02B2  3E82               	addlw	130
  3254     02B3  00ED               	movwf	___flmul@temp
  3255     02B4  085E               	movf	??___flmul+1,w
  3256     02B5  1803               	skipnc
  3257     02B6  3E01               	addlw	1
  3258     02B7  3EFF               	addlw	255
  3259     02B8  00EE               	movwf	___flmul@temp+1
  3260     02B9  2AD7               	goto	l2412
  3261     02BA                     l2402:
  3262     02BA  3001               	movlw	1
  3263     02BB  00DD               	movwf	??___flmul
  3264     02BC                     u3735:
  3265     02BC  1003               	clrc
  3266     02BD  0DE9               	rlf	___flmul@prod,f
  3267     02BE  0DEA               	rlf	___flmul@prod+1,f
  3268     02BF  0DEB               	rlf	___flmul@prod+2,f
  3269     02C0  0DEC               	rlf	___flmul@prod+3,f
  3270     02C1  0BDD               	decfsz	??___flmul,f
  3271     02C2  2ABC               	goto	u3735
  3272     02C3                     l2404:
  3273     02C3  1FE7               	btfss	___flmul@grs+3,7
  3274     02C4  2AC6               	goto	u3741
  3275     02C5  2AC7               	goto	u3740
  3276     02C6                     u3741:
  3277     02C6  2AC8               	goto	l2408
  3278     02C7                     u3740:
  3279     02C7                     l2406:
  3280     02C7  1469               	bsf	___flmul@prod,0
  3281     02C8                     l2408:
  3282     02C8  3001               	movlw	1
  3283     02C9  00DD               	movwf	??___flmul
  3284     02CA                     u3755:
  3285     02CA  1003               	clrc
  3286     02CB  0DE4               	rlf	___flmul@grs,f
  3287     02CC  0DE5               	rlf	___flmul@grs+1,f
  3288     02CD  0DE6               	rlf	___flmul@grs+2,f
  3289     02CE  0DE7               	rlf	___flmul@grs+3,f
  3290     02CF  0BDD               	decfsz	??___flmul,f
  3291     02D0  2ACA               	goto	u3755
  3292     02D1                     l2410:
  3293     02D1  30FF               	movlw	255
  3294     02D2  07ED               	addwf	___flmul@temp,f
  3295     02D3  1803               	skipnc
  3296     02D4  0AEE               	incf	___flmul@temp+1,f
  3297     02D5  30FF               	movlw	255
  3298     02D6  07EE               	addwf	___flmul@temp+1,f
  3299     02D7                     l2412:
  3300     02D7  1FEB               	btfss	___flmul@prod+2,7
  3301     02D8  2ADA               	goto	u3761
  3302     02D9  2ADB               	goto	u3760
  3303     02DA                     u3761:
  3304     02DA  2ABA               	goto	l2402
  3305     02DB                     u3760:
  3306     02DB                     l2414:
  3307     02DB  01E3               	clrf	___flmul@aexp
  3308     02DC                     l2416:
  3309     02DC  1FE7               	btfss	___flmul@grs+3,7
  3310     02DD  2ADF               	goto	u3771
  3311     02DE  2AE0               	goto	u3770
  3312     02DF                     u3771:
  3313     02DF  2AFC               	goto	l2424
  3314     02E0                     u3770:
  3315     02E0                     l2418:
  3316     02E0  30FF               	movlw	255
  3317     02E1  0564               	andwf	___flmul@grs,w
  3318     02E2  00DD               	movwf	??___flmul
  3319     02E3  30FF               	movlw	255
  3320     02E4  0565               	andwf	___flmul@grs+1,w
  3321     02E5  00DE               	movwf	??___flmul+1
  3322     02E6  30FF               	movlw	255
  3323     02E7  0566               	andwf	___flmul@grs+2,w
  3324     02E8  00DF               	movwf	??___flmul+2
  3325     02E9  307F               	movlw	127
  3326     02EA  0567               	andwf	___flmul@grs+3,w
  3327     02EB  00E0               	movwf	??___flmul+3
  3328     02EC  0860               	movf	??___flmul+3,w
  3329     02ED  045F               	iorwf	??___flmul+2,w
  3330     02EE  045E               	iorwf	??___flmul+1,w
  3331     02EF  045D               	iorwf	??___flmul,w
  3332     02F0  1903               	skipnz
  3333     02F1  2AF3               	goto	u3781
  3334     02F2  2AF4               	goto	u3780
  3335     02F3                     u3781:
  3336     02F3  2AF7               	goto	l709
  3337     02F4                     u3780:
  3338     02F4                     l2420:
  3339     02F4  01E3               	clrf	___flmul@aexp
  3340     02F5  0AE3               	incf	___flmul@aexp,f
  3341     02F6  2AFC               	goto	l2424
  3342     02F7                     l709:
  3343     02F7  1C69               	btfss	___flmul@prod,0
  3344     02F8  2AFA               	goto	u3791
  3345     02F9  2AFB               	goto	u3790
  3346     02FA                     u3791:
  3347     02FA  2AFC               	goto	l2424
  3348     02FB                     u3790:
  3349     02FB  2AF4               	goto	l2420
  3350     02FC                     l2424:
  3351     02FC  0863               	movf	___flmul@aexp,w
  3352     02FD  1903               	btfsc	3,2
  3353     02FE  2B00               	goto	u3801
  3354     02FF  2B01               	goto	u3800
  3355     0300                     u3801:
  3356     0300  2B32               	goto	l2434
  3357     0301                     u3800:
  3358     0301                     l2426:
  3359     0301  3001               	movlw	1
  3360     0302  07E9               	addwf	___flmul@prod,f
  3361     0303  3000               	movlw	0
  3362     0304  1803               	skipnc
  3363     0305  3001               	movlw	1
  3364     0306  07EA               	addwf	___flmul@prod+1,f
  3365     0307  3000               	movlw	0
  3366     0308  1803               	skipnc
  3367     0309  3001               	movlw	1
  3368     030A  07EB               	addwf	___flmul@prod+2,f
  3369     030B  3000               	movlw	0
  3370     030C  1803               	skipnc
  3371     030D  3001               	movlw	1
  3372     030E  07EC               	addwf	___flmul@prod+3,f
  3373     030F                     l2428:
  3374     030F  1C6C               	btfss	___flmul@prod+3,0
  3375     0310  2B12               	goto	u3811
  3376     0311  2B13               	goto	u3810
  3377     0312                     u3811:
  3378     0312  2B32               	goto	l2434
  3379     0313                     u3810:
  3380     0313                     l2430:
  3381     0313  0869               	movf	___flmul@prod,w
  3382     0314  00DD               	movwf	??___flmul
  3383     0315  086A               	movf	___flmul@prod+1,w
  3384     0316  00DE               	movwf	??___flmul+1
  3385     0317  086B               	movf	___flmul@prod+2,w
  3386     0318  00DF               	movwf	??___flmul+2
  3387     0319  086C               	movf	___flmul@prod+3,w
  3388     031A  00E0               	movwf	??___flmul+3
  3389     031B  3001               	movlw	1
  3390     031C  00E1               	movwf	??___flmul+4
  3391     031D                     u3825:
  3392     031D  0D60               	rlf	??___flmul+3,w
  3393     031E  0CE0               	rrf	??___flmul+3,f
  3394     031F  0CDF               	rrf	??___flmul+2,f
  3395     0320  0CDE               	rrf	??___flmul+1,f
  3396     0321  0CDD               	rrf	??___flmul,f
  3397     0322                     u3820:
  3398     0322  0BE1               	decfsz	??___flmul+4,f
  3399     0323  2B1D               	goto	u3825
  3400     0324  0860               	movf	??___flmul+3,w
  3401     0325  00EC               	movwf	___flmul@prod+3
  3402     0326  085F               	movf	??___flmul+2,w
  3403     0327  00EB               	movwf	___flmul@prod+2
  3404     0328  085E               	movf	??___flmul+1,w
  3405     0329  00EA               	movwf	___flmul@prod+1
  3406     032A  085D               	movf	??___flmul,w
  3407     032B  00E9               	movwf	___flmul@prod
  3408     032C                     l2432:
  3409     032C  3001               	movlw	1
  3410     032D  07ED               	addwf	___flmul@temp,f
  3411     032E  1803               	skipnc
  3412     032F  0AEE               	incf	___flmul@temp+1,f
  3413     0330  3000               	movlw	0
  3414     0331  07EE               	addwf	___flmul@temp+1,f
  3415     0332                     l2434:
  3416     0332  086E               	movf	___flmul@temp+1,w
  3417     0333  3A80               	xorlw	128
  3418     0334  00FF               	movwf	btemp+1
  3419     0335  3080               	movlw	128
  3420     0336  027F               	subwf	btemp+1,w
  3421     0337  1D03               	skipz
  3422     0338  2B3B               	goto	u3835
  3423     0339  30FF               	movlw	255
  3424     033A  026D               	subwf	___flmul@temp,w
  3425     033B                     u3835:
  3426     033B  1C03               	skipc
  3427     033C  2B3E               	goto	u3831
  3428     033D  2B3F               	goto	u3830
  3429     033E                     u3831:
  3430     033E  2B4A               	goto	l2438
  3431     033F                     u3830:
  3432     033F                     l2436:
  3433     033F  307F               	movlw	127
  3434     0340  1283               	bcf	3,5	;RP0=0, select bank0
  3435     0341  1303               	bcf	3,6	;RP1=0, select bank0
  3436     0342  00EC               	movwf	___flmul@prod+3
  3437     0343  3080               	movlw	128
  3438     0344  00EB               	movwf	___flmul@prod+2
  3439     0345  3000               	movlw	0
  3440     0346  00EA               	movwf	___flmul@prod+1
  3441     0347  3000               	movlw	0
  3442     0348  00E9               	movwf	___flmul@prod
  3443     0349  2B7B               	goto	l715
  3444     034A                     l2438:
  3445     034A  1283               	bcf	3,5	;RP0=0, select bank0
  3446     034B  1303               	bcf	3,6	;RP1=0, select bank0
  3447     034C  086E               	movf	___flmul@temp+1,w
  3448     034D  3A80               	xorlw	128
  3449     034E  00FF               	movwf	btemp+1
  3450     034F  3080               	movlw	128
  3451     0350  027F               	subwf	btemp+1,w
  3452     0351  1D03               	skipz
  3453     0352  2B55               	goto	u3845
  3454     0353  3001               	movlw	1
  3455     0354  026D               	subwf	___flmul@temp,w
  3456     0355                     u3845:
  3457     0355  1803               	skipnc
  3458     0356  2B58               	goto	u3841
  3459     0357  2B59               	goto	u3840
  3460     0358                     u3841:
  3461     0358  2B65               	goto	l2444
  3462     0359                     u3840:
  3463     0359                     l2440:
  3464     0359  3000               	movlw	0
  3465     035A  1283               	bcf	3,5	;RP0=0, select bank0
  3466     035B  1303               	bcf	3,6	;RP1=0, select bank0
  3467     035C  00EC               	movwf	___flmul@prod+3
  3468     035D  3000               	movlw	0
  3469     035E  00EB               	movwf	___flmul@prod+2
  3470     035F  3000               	movlw	0
  3471     0360  00EA               	movwf	___flmul@prod+1
  3472     0361  3000               	movlw	0
  3473     0362  00E9               	movwf	___flmul@prod
  3474     0363                     l2442:
  3475     0363  01E2               	clrf	___flmul@sign
  3476     0364  2B7B               	goto	l715
  3477     0365                     l2444:
  3478     0365  1283               	bcf	3,5	;RP0=0, select bank0
  3479     0366  1303               	bcf	3,6	;RP1=0, select bank0
  3480     0367  086D               	movf	___flmul@temp,w
  3481     0368  00E8               	movwf	___flmul@bexp
  3482     0369  30FF               	movlw	255
  3483     036A  05E9               	andwf	___flmul@prod,f
  3484     036B  30FF               	movlw	255
  3485     036C  05EA               	andwf	___flmul@prod+1,f
  3486     036D  307F               	movlw	127
  3487     036E  05EB               	andwf	___flmul@prod+2,f
  3488     036F  3000               	movlw	0
  3489     0370  05EC               	andwf	___flmul@prod+3,f
  3490     0371                     l2446:
  3491     0371  1C68               	btfss	___flmul@bexp,0
  3492     0372  2B74               	goto	u3851
  3493     0373  2B75               	goto	u3850
  3494     0374                     u3851:
  3495     0374  2B76               	goto	l2450
  3496     0375                     u3850:
  3497     0375                     l2448:
  3498     0375  17EB               	bsf	___flmul@prod+2,7
  3499     0376                     l2450:
  3500     0376  0868               	movf	___flmul@bexp,w
  3501     0377  00DD               	movwf	??___flmul
  3502     0378  1003               	clrc
  3503     0379  0C5D               	rrf	??___flmul,w
  3504     037A  00EC               	movwf	___flmul@prod+3
  3505     037B                     l715:
  3506     037B  0862               	movf	___flmul@sign,w
  3507     037C  00DD               	movwf	??___flmul
  3508     037D  085D               	movf	??___flmul,w
  3509     037E  04EC               	iorwf	___flmul@prod+3,f
  3510     037F                     l2452:
  3511     037F  086C               	movf	___flmul@prod+3,w
  3512     0380  00D8               	movwf	?___flmul+3
  3513     0381  086B               	movf	___flmul@prod+2,w
  3514     0382  00D7               	movwf	?___flmul+2
  3515     0383  086A               	movf	___flmul@prod+1,w
  3516     0384  00D6               	movwf	?___flmul+1
  3517     0385  0869               	movf	___flmul@prod,w
  3518     0386  00D5               	movwf	?___flmul
  3519     0387                     l703:
  3520     0387  0008               	return
  3521     0388                     __end_of___flmul:
  3522                           
  3523                           	psect	text13
  3524     0DB9                     __ptext13:	
  3525 ;; *************** function __Umul8_16 *****************
  3526 ;; Defined at:
  3527 ;;		line 4 in file "C:\Program Files\Microchip\xc8\v2.40\pic\sources\c90\common\Umul8_16.c"
  3528 ;; Parameters:    Size  Location     Type
  3529 ;;  multiplier      1    wreg     unsigned char 
  3530 ;;  multiplicand    1    2[COMMON] unsigned char 
  3531 ;; Auto vars:     Size  Location     Type
  3532 ;;  multiplier      1    4[BANK0 ] unsigned char 
  3533 ;;  word_mpld       2    2[BANK0 ] unsigned int 
  3534 ;;  product         2    0[BANK0 ] unsigned int 
  3535 ;; Return value:  Size  Location     Type
  3536 ;;                  2    2[COMMON] unsigned int 
  3537 ;; Registers used:
  3538 ;;		wreg, status,2, status,0
  3539 ;; Tracked objects:
  3540 ;;		On entry : 0/0
  3541 ;;		On exit  : 0/0
  3542 ;;		Unchanged: 0/0
  3543 ;; Data sizes:     COMMON   BANK0   BANK1   BANK3   BANK2
  3544 ;;      Params:         2       0       0       0       0
  3545 ;;      Locals:         0       5       0       0       0
  3546 ;;      Temps:          2       0       0       0       0
  3547 ;;      Totals:         4       5       0       0       0
  3548 ;;Total ram usage:        9 bytes
  3549 ;; Hardware stack levels used: 1
  3550 ;; Hardware stack levels required when called: 1
  3551 ;; This function calls:
  3552 ;;		Nothing
  3553 ;; This function is called by:
  3554 ;;		___flmul
  3555 ;; This function uses a non-reentrant model
  3556 ;;
  3557                           
  3558     0DB9                     __Umul8_16:	
  3559                           ;psect for function __Umul8_16
  3560                           
  3561                           
  3562                           ;incstack = 0
  3563                           ; Regs used in __Umul8_16: [wreg+status,2+status,0]
  3564                           ;__Umul8_16@multiplier stored from wreg
  3565     0DB9  1283               	bcf	3,5	;RP0=0, select bank0
  3566     0DBA  1303               	bcf	3,6	;RP1=0, select bank0
  3567     0DBB  00A4               	movwf	__Umul8_16@multiplier
  3568     0DBC                     l2262:
  3569     0DBC  01A0               	clrf	__Umul8_16@product
  3570     0DBD  01A1               	clrf	__Umul8_16@product+1
  3571     0DBE                     l2264:
  3572     0DBE  0872               	movf	__Umul8_16@multiplicand,w
  3573     0DBF  00F4               	movwf	??__Umul8_16
  3574     0DC0  01F5               	clrf	??__Umul8_16+1
  3575     0DC1  0874               	movf	??__Umul8_16,w
  3576     0DC2  00A2               	movwf	__Umul8_16@word_mpld
  3577     0DC3  0875               	movf	??__Umul8_16+1,w
  3578     0DC4  00A3               	movwf	__Umul8_16@word_mpld+1
  3579     0DC5                     l2266:
  3580     0DC5  1C24               	btfss	__Umul8_16@multiplier,0
  3581     0DC6  2DC8               	goto	u3351
  3582     0DC7  2DC9               	goto	u3350
  3583     0DC8                     u3351:
  3584     0DC8  2DCF               	goto	l722
  3585     0DC9                     u3350:
  3586     0DC9                     l2268:
  3587     0DC9  0822               	movf	__Umul8_16@word_mpld,w
  3588     0DCA  07A0               	addwf	__Umul8_16@product,f
  3589     0DCB  1803               	skipnc
  3590     0DCC  0AA1               	incf	__Umul8_16@product+1,f
  3591     0DCD  0823               	movf	__Umul8_16@word_mpld+1,w
  3592     0DCE  07A1               	addwf	__Umul8_16@product+1,f
  3593     0DCF                     l722:
  3594     0DCF  3001               	movlw	1
  3595     0DD0                     u3365:
  3596     0DD0  1003               	clrc
  3597     0DD1  0DA2               	rlf	__Umul8_16@word_mpld,f
  3598     0DD2  0DA3               	rlf	__Umul8_16@word_mpld+1,f
  3599     0DD3  3EFF               	addlw	-1
  3600     0DD4  1D03               	skipz
  3601     0DD5  2DD0               	goto	u3365
  3602     0DD6  1003               	clrc
  3603     0DD7  0CA4               	rrf	__Umul8_16@multiplier,f
  3604     0DD8                     l2270:
  3605     0DD8  0824               	movf	__Umul8_16@multiplier,w
  3606     0DD9  1D03               	btfss	3,2
  3607     0DDA  2DDC               	goto	u3371
  3608     0DDB  2DDD               	goto	u3370
  3609     0DDC                     u3371:
  3610     0DDC  2DC5               	goto	l2266
  3611     0DDD                     u3370:
  3612     0DDD                     l2272:
  3613     0DDD  0821               	movf	__Umul8_16@product+1,w
  3614     0DDE  00F3               	movwf	?__Umul8_16+1
  3615     0DDF  0820               	movf	__Umul8_16@product,w
  3616     0DE0  00F2               	movwf	?__Umul8_16
  3617     0DE1                     l724:
  3618     0DE1  0008               	return
  3619     0DE2                     __end_of__Umul8_16:
  3620                           
  3621                           	psect	text14
  3622     0388                     __ptext14:	
  3623 ;; *************** function ___fldiv *****************
  3624 ;; Defined at:
  3625 ;;		line 8 in file "C:\Program Files\Microchip\xc8\v2.40\pic\sources\c90\common\sprcdiv.c"
  3626 ;; Parameters:    Size  Location     Type
  3627 ;;  a               4   27[BANK0 ] unsigned int 
  3628 ;;  b               4   31[BANK0 ] unsigned int 
  3629 ;; Auto vars:     Size  Location     Type
  3630 ;;  grs             4   47[BANK0 ] unsigned long 
  3631 ;;  rem             4   40[BANK0 ] unsigned long 
  3632 ;;  new_exp         2   45[BANK0 ] int 
  3633 ;;  aexp            1   52[BANK0 ] unsigned char 
  3634 ;;  bexp            1   51[BANK0 ] unsigned char 
  3635 ;;  sign            1   44[BANK0 ] unsigned char 
  3636 ;; Return value:  Size  Location     Type
  3637 ;;                  4   27[BANK0 ] unsigned char 
  3638 ;; Registers used:
  3639 ;;		wreg, status,2, status,0, btemp+1
  3640 ;; Tracked objects:
  3641 ;;		On entry : 0/0
  3642 ;;		On exit  : 0/0
  3643 ;;		Unchanged: 0/0
  3644 ;; Data sizes:     COMMON   BANK0   BANK1   BANK3   BANK2
  3645 ;;      Params:         0       8       0       0       0
  3646 ;;      Locals:         0      13       0       0       0
  3647 ;;      Temps:          0       5       0       0       0
  3648 ;;      Totals:         0      26       0       0       0
  3649 ;;Total ram usage:       26 bytes
  3650 ;; Hardware stack levels used: 1
  3651 ;; Hardware stack levels required when called: 1
  3652 ;; This function calls:
  3653 ;;		Nothing
  3654 ;; This function is called by:
  3655 ;;		_PWM1_Duty
  3656 ;;		_PWM2_Duty
  3657 ;; This function uses a non-reentrant model
  3658 ;;
  3659                           
  3660     0388                     ___fldiv:	
  3661                           ;psect for function ___fldiv
  3662                           
  3663     0388                     l1524:	
  3664                           ;incstack = 0
  3665                           ; Regs used in ___fldiv: [wreg+status,2+status,0+btemp+1]
  3666                           
  3667     0388  1283               	bcf	3,5	;RP0=0, select bank0
  3668     0389  1303               	bcf	3,6	;RP1=0, select bank0
  3669     038A  0842               	movf	___fldiv@b+3,w
  3670     038B  3980               	andlw	128
  3671     038C  00CC               	movwf	___fldiv@sign
  3672     038D                     l1526:
  3673     038D  0842               	movf	___fldiv@b+3,w
  3674     038E  00C3               	movwf	??___fldiv
  3675     038F  0743               	addwf	??___fldiv,w
  3676     0390  00D3               	movwf	___fldiv@bexp
  3677     0391                     l1528:
  3678     0391  1FC1               	btfss	___fldiv@b+2,7
  3679     0392  2B94               	goto	u1631
  3680     0393  2B95               	goto	u1630
  3681     0394                     u1631:
  3682     0394  2B96               	goto	l1532
  3683     0395                     u1630:
  3684     0395                     l1530:
  3685     0395  1453               	bsf	___fldiv@bexp,0
  3686     0396                     l1532:
  3687     0396  0853               	movf	___fldiv@bexp,w
  3688     0397  1903               	btfsc	3,2
  3689     0398  2B9A               	goto	u1641
  3690     0399  2B9B               	goto	u1640
  3691     039A                     u1641:
  3692     039A  2BAB               	goto	l1542
  3693     039B                     u1640:
  3694     039B                     l1534:
  3695     039B  0A53               	incf	___fldiv@bexp,w
  3696     039C  1D03               	btfss	3,2
  3697     039D  2B9F               	goto	u1651
  3698     039E  2BA0               	goto	u1650
  3699     039F                     u1651:
  3700     039F  2BA8               	goto	l1538
  3701     03A0                     u1650:
  3702     03A0                     l1536:
  3703     03A0  3000               	movlw	0
  3704     03A1  00C2               	movwf	___fldiv@b+3
  3705     03A2  3000               	movlw	0
  3706     03A3  00C1               	movwf	___fldiv@b+2
  3707     03A4  3000               	movlw	0
  3708     03A5  00C0               	movwf	___fldiv@b+1
  3709     03A6  3000               	movlw	0
  3710     03A7  00BF               	movwf	___fldiv@b
  3711     03A8                     l1538:
  3712     03A8  17C1               	bsf	___fldiv@b+2,7
  3713     03A9                     l1540:
  3714     03A9  01C2               	clrf	___fldiv@b+3
  3715     03AA  2BB3               	goto	l1544
  3716     03AB                     l1542:
  3717     03AB  3000               	movlw	0
  3718     03AC  00C2               	movwf	___fldiv@b+3
  3719     03AD  3000               	movlw	0
  3720     03AE  00C1               	movwf	___fldiv@b+2
  3721     03AF  3000               	movlw	0
  3722     03B0  00C0               	movwf	___fldiv@b+1
  3723     03B1  3000               	movlw	0
  3724     03B2  00BF               	movwf	___fldiv@b
  3725     03B3                     l1544:
  3726     03B3  083E               	movf	___fldiv@a+3,w
  3727     03B4  3980               	andlw	128
  3728     03B5  00C3               	movwf	??___fldiv
  3729     03B6  0843               	movf	??___fldiv,w
  3730     03B7  06CC               	xorwf	___fldiv@sign,f
  3731     03B8                     l1546:
  3732     03B8  083E               	movf	___fldiv@a+3,w
  3733     03B9  00C3               	movwf	??___fldiv
  3734     03BA  0743               	addwf	??___fldiv,w
  3735     03BB  00D4               	movwf	___fldiv@aexp
  3736     03BC                     l1548:
  3737     03BC  1FBD               	btfss	___fldiv@a+2,7
  3738     03BD  2BBF               	goto	u1661
  3739     03BE  2BC0               	goto	u1660
  3740     03BF                     u1661:
  3741     03BF  2BC1               	goto	l1552
  3742     03C0                     u1660:
  3743     03C0                     l1550:
  3744     03C0  1454               	bsf	___fldiv@aexp,0
  3745     03C1                     l1552:
  3746     03C1  0854               	movf	___fldiv@aexp,w
  3747     03C2  1903               	btfsc	3,2
  3748     03C3  2BC5               	goto	u1671
  3749     03C4  2BC6               	goto	u1670
  3750     03C5                     u1671:
  3751     03C5  2BD6               	goto	l1562
  3752     03C6                     u1670:
  3753     03C6                     l1554:
  3754     03C6  0A54               	incf	___fldiv@aexp,w
  3755     03C7  1D03               	btfss	3,2
  3756     03C8  2BCA               	goto	u1681
  3757     03C9  2BCB               	goto	u1680
  3758     03CA                     u1681:
  3759     03CA  2BD3               	goto	l1558
  3760     03CB                     u1680:
  3761     03CB                     l1556:
  3762     03CB  3000               	movlw	0
  3763     03CC  00BE               	movwf	___fldiv@a+3
  3764     03CD  3000               	movlw	0
  3765     03CE  00BD               	movwf	___fldiv@a+2
  3766     03CF  3000               	movlw	0
  3767     03D0  00BC               	movwf	___fldiv@a+1
  3768     03D1  3000               	movlw	0
  3769     03D2  00BB               	movwf	___fldiv@a
  3770     03D3                     l1558:
  3771     03D3  17BD               	bsf	___fldiv@a+2,7
  3772     03D4                     l1560:
  3773     03D4  01BE               	clrf	___fldiv@a+3
  3774     03D5  2BDE               	goto	l663
  3775     03D6                     l1562:
  3776     03D6  3000               	movlw	0
  3777     03D7  00BE               	movwf	___fldiv@a+3
  3778     03D8  3000               	movlw	0
  3779     03D9  00BD               	movwf	___fldiv@a+2
  3780     03DA  3000               	movlw	0
  3781     03DB  00BC               	movwf	___fldiv@a+1
  3782     03DC  3000               	movlw	0
  3783     03DD  00BB               	movwf	___fldiv@a
  3784     03DE                     l663:
  3785     03DE  083E               	movf	___fldiv@a+3,w
  3786     03DF  043D               	iorwf	___fldiv@a+2,w
  3787     03E0  043C               	iorwf	___fldiv@a+1,w
  3788     03E1  043B               	iorwf	___fldiv@a,w
  3789     03E2  1D03               	skipz
  3790     03E3  2BE5               	goto	u1691
  3791     03E4  2BE6               	goto	u1690
  3792     03E5                     u1691:
  3793     03E5  2BFF               	goto	l1572
  3794     03E6                     u1690:
  3795     03E6                     l1564:
  3796     03E6  3000               	movlw	0
  3797     03E7  00C2               	movwf	___fldiv@b+3
  3798     03E8  3000               	movlw	0
  3799     03E9  00C1               	movwf	___fldiv@b+2
  3800     03EA  3000               	movlw	0
  3801     03EB  00C0               	movwf	___fldiv@b+1
  3802     03EC  3000               	movlw	0
  3803     03ED  00BF               	movwf	___fldiv@b
  3804     03EE  3080               	movlw	128
  3805     03EF  04C1               	iorwf	___fldiv@b+2,f
  3806     03F0  307F               	movlw	127
  3807     03F1  04C2               	iorwf	___fldiv@b+3,f
  3808     03F2                     l1566:
  3809     03F2  084C               	movf	___fldiv@sign,w
  3810     03F3  00C3               	movwf	??___fldiv
  3811     03F4  0843               	movf	??___fldiv,w
  3812     03F5  04C2               	iorwf	___fldiv@b+3,f
  3813     03F6                     l1568:
  3814     03F6  0842               	movf	___fldiv@b+3,w
  3815     03F7  00BE               	movwf	?___fldiv+3
  3816     03F8  0841               	movf	___fldiv@b+2,w
  3817     03F9  00BD               	movwf	?___fldiv+2
  3818     03FA  0840               	movf	___fldiv@b+1,w
  3819     03FB  00BC               	movwf	?___fldiv+1
  3820     03FC  083F               	movf	___fldiv@b,w
  3821     03FD  00BB               	movwf	?___fldiv
  3822     03FE  2D5A               	goto	l665
  3823     03FF                     l1572:
  3824     03FF  0853               	movf	___fldiv@bexp,w
  3825     0400  1D03               	btfss	3,2
  3826     0401  2C03               	goto	u1701
  3827     0402  2C04               	goto	u1700
  3828     0403                     u1701:
  3829     0403  2C0D               	goto	l1578
  3830     0404                     u1700:
  3831     0404                     l1574:
  3832     0404  3000               	movlw	0
  3833     0405  00BE               	movwf	?___fldiv+3
  3834     0406  3000               	movlw	0
  3835     0407  00BD               	movwf	?___fldiv+2
  3836     0408  3000               	movlw	0
  3837     0409  00BC               	movwf	?___fldiv+1
  3838     040A  3000               	movlw	0
  3839     040B  00BB               	movwf	?___fldiv
  3840     040C  2D5A               	goto	l665
  3841     040D                     l1578:
  3842     040D  0853               	movf	___fldiv@bexp,w
  3843     040E  00C3               	movwf	??___fldiv
  3844     040F  01C4               	clrf	??___fldiv+1
  3845     0410  0844               	movf	??___fldiv+1,w
  3846     0411  00C6               	movwf	??___fldiv+3
  3847     0412  0854               	movf	___fldiv@aexp,w
  3848     0413  0243               	subwf	??___fldiv,w
  3849     0414  00C5               	movwf	??___fldiv+2
  3850     0415  1C03               	skipc
  3851     0416  03C6               	decf	??___fldiv+3,f
  3852     0417  0845               	movf	??___fldiv+2,w
  3853     0418  3E7F               	addlw	127
  3854     0419  00CD               	movwf	___fldiv@new_exp
  3855     041A  0846               	movf	??___fldiv+3,w
  3856     041B  1803               	skipnc
  3857     041C  3E01               	addlw	1
  3858     041D  3E00               	addlw	0
  3859     041E  00CE               	movwf	___fldiv@new_exp+1
  3860     041F                     l1580:
  3861     041F  0842               	movf	___fldiv@b+3,w
  3862     0420  00CB               	movwf	___fldiv@rem+3
  3863     0421  0841               	movf	___fldiv@b+2,w
  3864     0422  00CA               	movwf	___fldiv@rem+2
  3865     0423  0840               	movf	___fldiv@b+1,w
  3866     0424  00C9               	movwf	___fldiv@rem+1
  3867     0425  083F               	movf	___fldiv@b,w
  3868     0426  00C8               	movwf	___fldiv@rem
  3869     0427                     l1582:
  3870     0427  3000               	movlw	0
  3871     0428  00C2               	movwf	___fldiv@b+3
  3872     0429  3000               	movlw	0
  3873     042A  00C1               	movwf	___fldiv@b+2
  3874     042B  3000               	movlw	0
  3875     042C  00C0               	movwf	___fldiv@b+1
  3876     042D  3000               	movlw	0
  3877     042E  00BF               	movwf	___fldiv@b
  3878     042F                     l1584:
  3879     042F  3000               	movlw	0
  3880     0430  00D2               	movwf	___fldiv@grs+3
  3881     0431  3000               	movlw	0
  3882     0432  00D1               	movwf	___fldiv@grs+2
  3883     0433  3000               	movlw	0
  3884     0434  00D0               	movwf	___fldiv@grs+1
  3885     0435  3000               	movlw	0
  3886     0436  00CF               	movwf	___fldiv@grs
  3887     0437                     l1586:
  3888     0437  01D4               	clrf	___fldiv@aexp
  3889     0438  2C83               	goto	l1606
  3890     0439                     l1588:
  3891     0439  0854               	movf	___fldiv@aexp,w
  3892     043A  1903               	btfsc	3,2
  3893     043B  2C3D               	goto	u1711
  3894     043C  2C3E               	goto	u1710
  3895     043D                     u1711:
  3896     043D  2C5E               	goto	l1598
  3897     043E                     u1710:
  3898     043E                     l1590:
  3899     043E  3001               	movlw	1
  3900     043F  00C3               	movwf	??___fldiv
  3901     0440                     u1725:
  3902     0440  1003               	clrc
  3903     0441  0DC8               	rlf	___fldiv@rem,f
  3904     0442  0DC9               	rlf	___fldiv@rem+1,f
  3905     0443  0DCA               	rlf	___fldiv@rem+2,f
  3906     0444  0DCB               	rlf	___fldiv@rem+3,f
  3907     0445  0BC3               	decfsz	??___fldiv,f
  3908     0446  2C40               	goto	u1725
  3909     0447  3001               	movlw	1
  3910     0448  00C3               	movwf	??___fldiv
  3911     0449                     u1735:
  3912     0449  1003               	clrc
  3913     044A  0DBF               	rlf	___fldiv@b,f
  3914     044B  0DC0               	rlf	___fldiv@b+1,f
  3915     044C  0DC1               	rlf	___fldiv@b+2,f
  3916     044D  0DC2               	rlf	___fldiv@b+3,f
  3917     044E  0BC3               	decfsz	??___fldiv,f
  3918     044F  2C49               	goto	u1735
  3919     0450                     l1592:
  3920     0450  1FD2               	btfss	___fldiv@grs+3,7
  3921     0451  2C53               	goto	u1741
  3922     0452  2C54               	goto	u1740
  3923     0453                     u1741:
  3924     0453  2C55               	goto	l1596
  3925     0454                     u1740:
  3926     0454                     l1594:
  3927     0454  143F               	bsf	___fldiv@b,0
  3928     0455                     l1596:
  3929     0455  3001               	movlw	1
  3930     0456  00C3               	movwf	??___fldiv
  3931     0457                     u1755:
  3932     0457  1003               	clrc
  3933     0458  0DCF               	rlf	___fldiv@grs,f
  3934     0459  0DD0               	rlf	___fldiv@grs+1,f
  3935     045A  0DD1               	rlf	___fldiv@grs+2,f
  3936     045B  0DD2               	rlf	___fldiv@grs+3,f
  3937     045C  0BC3               	decfsz	??___fldiv,f
  3938     045D  2C57               	goto	u1755
  3939     045E                     l1598:
  3940     045E  083E               	movf	___fldiv@a+3,w
  3941     045F  024B               	subwf	___fldiv@rem+3,w
  3942     0460  1D03               	skipz
  3943     0461  2C6C               	goto	u1765
  3944     0462  083D               	movf	___fldiv@a+2,w
  3945     0463  024A               	subwf	___fldiv@rem+2,w
  3946     0464  1D03               	skipz
  3947     0465  2C6C               	goto	u1765
  3948     0466  083C               	movf	___fldiv@a+1,w
  3949     0467  0249               	subwf	___fldiv@rem+1,w
  3950     0468  1D03               	skipz
  3951     0469  2C6C               	goto	u1765
  3952     046A  083B               	movf	___fldiv@a,w
  3953     046B  0248               	subwf	___fldiv@rem,w
  3954     046C                     u1765:
  3955     046C  1C03               	skipc
  3956     046D  2C6F               	goto	u1761
  3957     046E  2C70               	goto	u1760
  3958     046F                     u1761:
  3959     046F  2C7F               	goto	l1604
  3960     0470                     u1760:
  3961     0470                     l1600:
  3962     0470  1752               	bsf	___fldiv@grs+3,6
  3963     0471                     l1602:
  3964     0471  083B               	movf	___fldiv@a,w
  3965     0472  02C8               	subwf	___fldiv@rem,f
  3966     0473  083C               	movf	___fldiv@a+1,w
  3967     0474  1C03               	skipc
  3968     0475  0F3C               	incfsz	___fldiv@a+1,w
  3969     0476  02C9               	subwf	___fldiv@rem+1,f
  3970     0477  083D               	movf	___fldiv@a+2,w
  3971     0478  1C03               	skipc
  3972     0479  0F3D               	incfsz	___fldiv@a+2,w
  3973     047A  02CA               	subwf	___fldiv@rem+2,f
  3974     047B  083E               	movf	___fldiv@a+3,w
  3975     047C  1C03               	skipc
  3976     047D  0F3E               	incfsz	___fldiv@a+3,w
  3977     047E  02CB               	subwf	___fldiv@rem+3,f
  3978     047F                     l1604:
  3979     047F  3001               	movlw	1
  3980     0480  00C3               	movwf	??___fldiv
  3981     0481  0843               	movf	??___fldiv,w
  3982     0482  07D4               	addwf	___fldiv@aexp,f
  3983     0483                     l1606:
  3984     0483  301A               	movlw	26
  3985     0484  0254               	subwf	___fldiv@aexp,w
  3986     0485  1C03               	skipc
  3987     0486  2C88               	goto	u1771
  3988     0487  2C89               	goto	u1770
  3989     0488                     u1771:
  3990     0488  2C39               	goto	l1588
  3991     0489                     u1770:
  3992     0489                     l1608:
  3993     0489  084B               	movf	___fldiv@rem+3,w
  3994     048A  044A               	iorwf	___fldiv@rem+2,w
  3995     048B  0449               	iorwf	___fldiv@rem+1,w
  3996     048C  0448               	iorwf	___fldiv@rem,w
  3997     048D  1903               	skipnz
  3998     048E  2C90               	goto	u1781
  3999     048F  2C91               	goto	u1780
  4000     0490                     u1781:
  4001     0490  2CB0               	goto	l1622
  4002     0491                     u1780:
  4003     0491                     l1610:
  4004     0491  144F               	bsf	___fldiv@grs,0
  4005     0492  2CB0               	goto	l1622
  4006     0493                     l1612:
  4007     0493  3001               	movlw	1
  4008     0494  00C3               	movwf	??___fldiv
  4009     0495                     u1795:
  4010     0495  1003               	clrc
  4011     0496  0DBF               	rlf	___fldiv@b,f
  4012     0497  0DC0               	rlf	___fldiv@b+1,f
  4013     0498  0DC1               	rlf	___fldiv@b+2,f
  4014     0499  0DC2               	rlf	___fldiv@b+3,f
  4015     049A  0BC3               	decfsz	??___fldiv,f
  4016     049B  2C95               	goto	u1795
  4017     049C                     l1614:
  4018     049C  1FD2               	btfss	___fldiv@grs+3,7
  4019     049D  2C9F               	goto	u1801
  4020     049E  2CA0               	goto	u1800
  4021     049F                     u1801:
  4022     049F  2CA1               	goto	l1618
  4023     04A0                     u1800:
  4024     04A0                     l1616:
  4025     04A0  143F               	bsf	___fldiv@b,0
  4026     04A1                     l1618:
  4027     04A1  3001               	movlw	1
  4028     04A2  00C3               	movwf	??___fldiv
  4029     04A3                     u1815:
  4030     04A3  1003               	clrc
  4031     04A4  0DCF               	rlf	___fldiv@grs,f
  4032     04A5  0DD0               	rlf	___fldiv@grs+1,f
  4033     04A6  0DD1               	rlf	___fldiv@grs+2,f
  4034     04A7  0DD2               	rlf	___fldiv@grs+3,f
  4035     04A8  0BC3               	decfsz	??___fldiv,f
  4036     04A9  2CA3               	goto	u1815
  4037     04AA                     l1620:
  4038     04AA  30FF               	movlw	255
  4039     04AB  07CD               	addwf	___fldiv@new_exp,f
  4040     04AC  1803               	skipnc
  4041     04AD  0ACE               	incf	___fldiv@new_exp+1,f
  4042     04AE  30FF               	movlw	255
  4043     04AF  07CE               	addwf	___fldiv@new_exp+1,f
  4044     04B0                     l1622:
  4045     04B0  1FC1               	btfss	___fldiv@b+2,7
  4046     04B1  2CB3               	goto	u1821
  4047     04B2  2CB4               	goto	u1820
  4048     04B3                     u1821:
  4049     04B3  2C93               	goto	l1612
  4050     04B4                     u1820:
  4051     04B4                     l1624:
  4052     04B4  01D4               	clrf	___fldiv@aexp
  4053     04B5                     l1626:
  4054     04B5  1FD2               	btfss	___fldiv@grs+3,7
  4055     04B6  2CB8               	goto	u1831
  4056     04B7  2CB9               	goto	u1830
  4057     04B8                     u1831:
  4058     04B8  2CD5               	goto	l1634
  4059     04B9                     u1830:
  4060     04B9                     l1628:
  4061     04B9  30FF               	movlw	255
  4062     04BA  054F               	andwf	___fldiv@grs,w
  4063     04BB  00C3               	movwf	??___fldiv
  4064     04BC  30FF               	movlw	255
  4065     04BD  0550               	andwf	___fldiv@grs+1,w
  4066     04BE  00C4               	movwf	??___fldiv+1
  4067     04BF  30FF               	movlw	255
  4068     04C0  0551               	andwf	___fldiv@grs+2,w
  4069     04C1  00C5               	movwf	??___fldiv+2
  4070     04C2  307F               	movlw	127
  4071     04C3  0552               	andwf	___fldiv@grs+3,w
  4072     04C4  00C6               	movwf	??___fldiv+3
  4073     04C5  0846               	movf	??___fldiv+3,w
  4074     04C6  0445               	iorwf	??___fldiv+2,w
  4075     04C7  0444               	iorwf	??___fldiv+1,w
  4076     04C8  0443               	iorwf	??___fldiv,w
  4077     04C9  1903               	skipnz
  4078     04CA  2CCC               	goto	u1841
  4079     04CB  2CCD               	goto	u1840
  4080     04CC                     u1841:
  4081     04CC  2CD0               	goto	l679
  4082     04CD                     u1840:
  4083     04CD                     l1630:
  4084     04CD  01D4               	clrf	___fldiv@aexp
  4085     04CE  0AD4               	incf	___fldiv@aexp,f
  4086     04CF  2CD5               	goto	l1634
  4087     04D0                     l679:
  4088     04D0  1C3F               	btfss	___fldiv@b,0
  4089     04D1  2CD3               	goto	u1851
  4090     04D2  2CD4               	goto	u1850
  4091     04D3                     u1851:
  4092     04D3  2CD5               	goto	l1634
  4093     04D4                     u1850:
  4094     04D4  2CCD               	goto	l1630
  4095     04D5                     l1634:
  4096     04D5  0854               	movf	___fldiv@aexp,w
  4097     04D6  1903               	btfsc	3,2
  4098     04D7  2CD9               	goto	u1861
  4099     04D8  2CDA               	goto	u1860
  4100     04D9                     u1861:
  4101     04D9  2D0B               	goto	l1644
  4102     04DA                     u1860:
  4103     04DA                     l1636:
  4104     04DA  3001               	movlw	1
  4105     04DB  07BF               	addwf	___fldiv@b,f
  4106     04DC  3000               	movlw	0
  4107     04DD  1803               	skipnc
  4108     04DE  3001               	movlw	1
  4109     04DF  07C0               	addwf	___fldiv@b+1,f
  4110     04E0  3000               	movlw	0
  4111     04E1  1803               	skipnc
  4112     04E2  3001               	movlw	1
  4113     04E3  07C1               	addwf	___fldiv@b+2,f
  4114     04E4  3000               	movlw	0
  4115     04E5  1803               	skipnc
  4116     04E6  3001               	movlw	1
  4117     04E7  07C2               	addwf	___fldiv@b+3,f
  4118     04E8                     l1638:
  4119     04E8  1C42               	btfss	___fldiv@b+3,0
  4120     04E9  2CEB               	goto	u1871
  4121     04EA  2CEC               	goto	u1870
  4122     04EB                     u1871:
  4123     04EB  2D0B               	goto	l1644
  4124     04EC                     u1870:
  4125     04EC                     l1640:
  4126     04EC  083F               	movf	___fldiv@b,w
  4127     04ED  00C3               	movwf	??___fldiv
  4128     04EE  0840               	movf	___fldiv@b+1,w
  4129     04EF  00C4               	movwf	??___fldiv+1
  4130     04F0  0841               	movf	___fldiv@b+2,w
  4131     04F1  00C5               	movwf	??___fldiv+2
  4132     04F2  0842               	movf	___fldiv@b+3,w
  4133     04F3  00C6               	movwf	??___fldiv+3
  4134     04F4  3001               	movlw	1
  4135     04F5  00C7               	movwf	??___fldiv+4
  4136     04F6                     u1885:
  4137     04F6  0D46               	rlf	??___fldiv+3,w
  4138     04F7  0CC6               	rrf	??___fldiv+3,f
  4139     04F8  0CC5               	rrf	??___fldiv+2,f
  4140     04F9  0CC4               	rrf	??___fldiv+1,f
  4141     04FA  0CC3               	rrf	??___fldiv,f
  4142     04FB                     u1880:
  4143     04FB  0BC7               	decfsz	??___fldiv+4,f
  4144     04FC  2CF6               	goto	u1885
  4145     04FD  0846               	movf	??___fldiv+3,w
  4146     04FE  00C2               	movwf	___fldiv@b+3
  4147     04FF  0845               	movf	??___fldiv+2,w
  4148     0500  00C1               	movwf	___fldiv@b+2
  4149     0501  0844               	movf	??___fldiv+1,w
  4150     0502  00C0               	movwf	___fldiv@b+1
  4151     0503  0843               	movf	??___fldiv,w
  4152     0504  00BF               	movwf	___fldiv@b
  4153     0505                     l1642:
  4154     0505  3001               	movlw	1
  4155     0506  07CD               	addwf	___fldiv@new_exp,f
  4156     0507  1803               	skipnc
  4157     0508  0ACE               	incf	___fldiv@new_exp+1,f
  4158     0509  3000               	movlw	0
  4159     050A  07CE               	addwf	___fldiv@new_exp+1,f
  4160     050B                     l1644:
  4161     050B  084E               	movf	___fldiv@new_exp+1,w
  4162     050C  3A80               	xorlw	128
  4163     050D  00FF               	movwf	btemp+1
  4164     050E  3080               	movlw	128
  4165     050F  027F               	subwf	btemp+1,w
  4166     0510  1D03               	skipz
  4167     0511  2D14               	goto	u1895
  4168     0512  30FF               	movlw	255
  4169     0513  024D               	subwf	___fldiv@new_exp,w
  4170     0514                     u1895:
  4171     0514  1C03               	skipc
  4172     0515  2D17               	goto	u1891
  4173     0516  2D18               	goto	u1890
  4174     0517                     u1891:
  4175     0517  2D26               	goto	l1648
  4176     0518                     u1890:
  4177     0518                     l1646:
  4178     0518  30FF               	movlw	255
  4179     0519  1283               	bcf	3,5	;RP0=0, select bank0
  4180     051A  1303               	bcf	3,6	;RP1=0, select bank0
  4181     051B  00CD               	movwf	___fldiv@new_exp
  4182     051C  3000               	movlw	0
  4183     051D  00CE               	movwf	___fldiv@new_exp+1
  4184     051E  3000               	movlw	0
  4185     051F  00C2               	movwf	___fldiv@b+3
  4186     0520  3000               	movlw	0
  4187     0521  00C1               	movwf	___fldiv@b+2
  4188     0522  3000               	movlw	0
  4189     0523  00C0               	movwf	___fldiv@b+1
  4190     0524  3000               	movlw	0
  4191     0525  00BF               	movwf	___fldiv@b
  4192     0526                     l1648:
  4193     0526  1283               	bcf	3,5	;RP0=0, select bank0
  4194     0527  1303               	bcf	3,6	;RP1=0, select bank0
  4195     0528  084E               	movf	___fldiv@new_exp+1,w
  4196     0529  3A80               	xorlw	128
  4197     052A  00FF               	movwf	btemp+1
  4198     052B  3080               	movlw	128
  4199     052C  027F               	subwf	btemp+1,w
  4200     052D  1D03               	skipz
  4201     052E  2D31               	goto	u1905
  4202     052F  3001               	movlw	1
  4203     0530  024D               	subwf	___fldiv@new_exp,w
  4204     0531                     u1905:
  4205     0531  1803               	skipnc
  4206     0532  2D34               	goto	u1901
  4207     0533  2D35               	goto	u1900
  4208     0534                     u1901:
  4209     0534  2D42               	goto	l685
  4210     0535                     u1900:
  4211     0535                     l1650:
  4212     0535  1283               	bcf	3,5	;RP0=0, select bank0
  4213     0536  1303               	bcf	3,6	;RP1=0, select bank0
  4214     0537  01CD               	clrf	___fldiv@new_exp
  4215     0538  01CE               	clrf	___fldiv@new_exp+1
  4216     0539                     l1652:
  4217     0539  3000               	movlw	0
  4218     053A  00C2               	movwf	___fldiv@b+3
  4219     053B  3000               	movlw	0
  4220     053C  00C1               	movwf	___fldiv@b+2
  4221     053D  3000               	movlw	0
  4222     053E  00C0               	movwf	___fldiv@b+1
  4223     053F  3000               	movlw	0
  4224     0540  00BF               	movwf	___fldiv@b
  4225     0541                     l1654:
  4226     0541  01CC               	clrf	___fldiv@sign
  4227     0542                     l685:
  4228     0542  1283               	bcf	3,5	;RP0=0, select bank0
  4229     0543  1303               	bcf	3,6	;RP1=0, select bank0
  4230     0544  084D               	movf	___fldiv@new_exp,w
  4231     0545  00D3               	movwf	___fldiv@bexp
  4232     0546                     l1656:
  4233     0546  1C53               	btfss	___fldiv@bexp,0
  4234     0547  2D49               	goto	u1911
  4235     0548  2D4A               	goto	u1910
  4236     0549                     u1911:
  4237     0549  2D4C               	goto	l1660
  4238     054A                     u1910:
  4239     054A                     l1658:
  4240     054A  17C1               	bsf	___fldiv@b+2,7
  4241     054B  2D50               	goto	l687
  4242     054C                     l1660:
  4243     054C  307F               	movlw	127
  4244     054D  00C3               	movwf	??___fldiv
  4245     054E  0843               	movf	??___fldiv,w
  4246     054F  05C1               	andwf	___fldiv@b+2,f
  4247     0550                     l687:
  4248     0550  0853               	movf	___fldiv@bexp,w
  4249     0551  00C3               	movwf	??___fldiv
  4250     0552  1003               	clrc
  4251     0553  0C43               	rrf	??___fldiv,w
  4252     0554  00C2               	movwf	___fldiv@b+3
  4253     0555  084C               	movf	___fldiv@sign,w
  4254     0556  00C3               	movwf	??___fldiv
  4255     0557  0843               	movf	??___fldiv,w
  4256     0558  04C2               	iorwf	___fldiv@b+3,f
  4257     0559  2BF6               	goto	l1568
  4258     055A                     l665:
  4259     055A  0008               	return
  4260     055B                     __end_of___fldiv:
  4261                           
  4262                           	psect	text15
  4263     0E50                     __ptext15:	
  4264 ;; *************** function _PWM_Max_Duty *****************
  4265 ;; Defined at:
  4266 ;;		line 20 in file "PWM.c"
  4267 ;; Parameters:    Size  Location     Type
  4268 ;;		None
  4269 ;; Auto vars:     Size  Location     Type
  4270 ;;		None
  4271 ;; Return value:  Size  Location     Type
  4272 ;;                  2    7[BANK0 ] int 
  4273 ;; Registers used:
  4274 ;;		wreg, status,2, status,0, pclath, cstack
  4275 ;; Tracked objects:
  4276 ;;		On entry : 0/0
  4277 ;;		On exit  : 0/0
  4278 ;;		Unchanged: 0/0
  4279 ;; Data sizes:     COMMON   BANK0   BANK1   BANK3   BANK2
  4280 ;;      Params:         0       2       0       0       0
  4281 ;;      Locals:         0       0       0       0       0
  4282 ;;      Temps:          0       4       0       0       0
  4283 ;;      Totals:         0       6       0       0       0
  4284 ;;Total ram usage:        6 bytes
  4285 ;; Hardware stack levels used: 1
  4286 ;; Hardware stack levels required when called: 2
  4287 ;; This function calls:
  4288 ;;		___aldiv
  4289 ;; This function is called by:
  4290 ;;		_PWM1_Duty
  4291 ;;		_PWM2_Duty
  4292 ;; This function uses a non-reentrant model
  4293 ;;
  4294                           
  4295     0E50                     _PWM_Max_Duty:	
  4296                           ;psect for function _PWM_Max_Duty
  4297                           
  4298     0E50                     l2276:	
  4299                           ;incstack = 0
  4300                           ; Regs used in _PWM_Max_Duty: [wreg+status,2+status,0+pclath+cstack]
  4301                           
  4302     0E50  1683               	bsf	3,5	;RP0=1, select bank1
  4303     0E51  1303               	bcf	3,6	;RP1=0, select bank1
  4304     0E52  086A               	movf	_freq^(0+128),w
  4305     0E53  1283               	bcf	3,5	;RP0=0, select bank0
  4306     0E54  1303               	bcf	3,6	;RP1=0, select bank0
  4307     0E55  00A9               	movwf	??_PWM_Max_Duty
  4308     0E56  1683               	bsf	3,5	;RP0=1, select bank1
  4309     0E57  1303               	bcf	3,6	;RP1=0, select bank1
  4310     0E58  086B               	movf	(_freq+1)^(0+128),w
  4311     0E59  1283               	bcf	3,5	;RP0=0, select bank0
  4312     0E5A  1303               	bcf	3,6	;RP1=0, select bank0
  4313     0E5B  00AA               	movwf	??_PWM_Max_Duty+1
  4314     0E5C  1683               	bsf	3,5	;RP0=1, select bank1
  4315     0E5D  1303               	bcf	3,6	;RP1=0, select bank1
  4316     0E5E  086C               	movf	(_freq+2)^(0+128),w
  4317     0E5F  1283               	bcf	3,5	;RP0=0, select bank0
  4318     0E60  1303               	bcf	3,6	;RP1=0, select bank0
  4319     0E61  00AB               	movwf	??_PWM_Max_Duty+2
  4320     0E62  1683               	bsf	3,5	;RP0=1, select bank1
  4321     0E63  1303               	bcf	3,6	;RP1=0, select bank1
  4322     0E64  086D               	movf	(_freq+3)^(0+128),w
  4323     0E65  1283               	bcf	3,5	;RP0=0, select bank0
  4324     0E66  1303               	bcf	3,6	;RP1=0, select bank0
  4325     0E67  00AC               	movwf	??_PWM_Max_Duty+3
  4326     0E68  3002               	movlw	2
  4327     0E69                     u3385:
  4328     0E69  1003               	clrc
  4329     0E6A  0DA9               	rlf	??_PWM_Max_Duty,f
  4330     0E6B  0DAA               	rlf	??_PWM_Max_Duty+1,f
  4331     0E6C  0DAB               	rlf	??_PWM_Max_Duty+2,f
  4332     0E6D  0DAC               	rlf	??_PWM_Max_Duty+3,f
  4333     0E6E                     u3380:
  4334     0E6E  3EFF               	addlw	-1
  4335     0E6F  1D03               	skipz
  4336     0E70  2E69               	goto	u3385
  4337     0E71  082C               	movf	??_PWM_Max_Duty+3,w
  4338     0E72  00F5               	movwf	___aldiv@divisor+3
  4339     0E73  082B               	movf	??_PWM_Max_Duty+2,w
  4340     0E74  00F4               	movwf	___aldiv@divisor+2
  4341     0E75  082A               	movf	??_PWM_Max_Duty+1,w
  4342     0E76  00F3               	movwf	___aldiv@divisor+1
  4343     0E77  0829               	movf	??_PWM_Max_Duty,w
  4344     0E78  00F2               	movwf	___aldiv@divisor
  4345     0E79  3000               	movlw	0
  4346     0E7A  00F9               	movwf	___aldiv@dividend+3
  4347     0E7B  303D               	movlw	61
  4348     0E7C  00F8               	movwf	___aldiv@dividend+2
  4349     0E7D  3009               	movlw	9
  4350     0E7E  00F7               	movwf	___aldiv@dividend+1
  4351     0E7F  3000               	movlw	0
  4352     0E80  00F6               	movwf	___aldiv@dividend
  4353     0E81  120A  118A  2761  120A  158A  	fcall	___aldiv
  4354     0E86  0873               	movf	?___aldiv+1,w
  4355     0E87  1283               	bcf	3,5	;RP0=0, select bank0
  4356     0E88  1303               	bcf	3,6	;RP1=0, select bank0
  4357     0E89  00A8               	movwf	?_PWM_Max_Duty+1
  4358     0E8A  0872               	movf	?___aldiv,w
  4359     0E8B  00A7               	movwf	?_PWM_Max_Duty
  4360     0E8C                     l199:
  4361     0E8C  0008               	return
  4362     0E8D                     __end_of_PWM_Max_Duty:
  4363                           
  4364                           	psect	text16
  4365     0761                     __ptext16:	
  4366 ;; *************** function ___aldiv *****************
  4367 ;; Defined at:
  4368 ;;		line 5 in file "C:\Program Files\Microchip\xc8\v2.40\pic\sources\c90\common\aldiv.c"
  4369 ;; Parameters:    Size  Location     Type
  4370 ;;  divisor         4    2[COMMON] long 
  4371 ;;  dividend        4    6[COMMON] long 
  4372 ;; Auto vars:     Size  Location     Type
  4373 ;;  quotient        4    3[BANK0 ] long 
  4374 ;;  sign            1    2[BANK0 ] unsigned char 
  4375 ;;  counter         1    1[BANK0 ] unsigned char 
  4376 ;; Return value:  Size  Location     Type
  4377 ;;                  4    2[COMMON] long 
  4378 ;; Registers used:
  4379 ;;		wreg, status,2, status,0
  4380 ;; Tracked objects:
  4381 ;;		On entry : 0/0
  4382 ;;		On exit  : 0/0
  4383 ;;		Unchanged: 0/0
  4384 ;; Data sizes:     COMMON   BANK0   BANK1   BANK3   BANK2
  4385 ;;      Params:         8       0       0       0       0
  4386 ;;      Locals:         0       6       0       0       0
  4387 ;;      Temps:          0       1       0       0       0
  4388 ;;      Totals:         8       7       0       0       0
  4389 ;;Total ram usage:       15 bytes
  4390 ;; Hardware stack levels used: 1
  4391 ;; Hardware stack levels required when called: 1
  4392 ;; This function calls:
  4393 ;;		Nothing
  4394 ;; This function is called by:
  4395 ;;		_PWM_Max_Duty
  4396 ;;		_PWM1_Init
  4397 ;;		_PWM2_Init
  4398 ;;		_Lectura
  4399 ;; This function uses a non-reentrant model
  4400 ;;
  4401                           
  4402     0761                     ___aldiv:	
  4403                           ;psect for function ___aldiv
  4404                           
  4405     0761                     l2222:	
  4406                           ;incstack = 0
  4407                           ; Regs used in ___aldiv: [wreg+status,2+status,0]
  4408                           
  4409     0761  1283               	bcf	3,5	;RP0=0, select bank0
  4410     0762  1303               	bcf	3,6	;RP1=0, select bank0
  4411     0763  01A2               	clrf	___aldiv@sign
  4412     0764                     l2224:
  4413     0764  1FF5               	btfss	___aldiv@divisor+3,7
  4414     0765  2F67               	goto	u3251
  4415     0766  2F68               	goto	u3250
  4416     0767                     u3251:
  4417     0767  2F75               	goto	l379
  4418     0768                     u3250:
  4419     0768                     l2226:
  4420     0768  09F2               	comf	___aldiv@divisor,f
  4421     0769  09F3               	comf	___aldiv@divisor+1,f
  4422     076A  09F4               	comf	___aldiv@divisor+2,f
  4423     076B  09F5               	comf	___aldiv@divisor+3,f
  4424     076C  0AF2               	incf	___aldiv@divisor,f
  4425     076D  1903               	skipnz
  4426     076E  0AF3               	incf	___aldiv@divisor+1,f
  4427     076F  1903               	skipnz
  4428     0770  0AF4               	incf	___aldiv@divisor+2,f
  4429     0771  1903               	skipnz
  4430     0772  0AF5               	incf	___aldiv@divisor+3,f
  4431     0773  01A2               	clrf	___aldiv@sign
  4432     0774  0AA2               	incf	___aldiv@sign,f
  4433     0775                     l379:
  4434     0775  1FF9               	btfss	___aldiv@dividend+3,7
  4435     0776  2F78               	goto	u3261
  4436     0777  2F79               	goto	u3260
  4437     0778                     u3261:
  4438     0778  2F88               	goto	l2232
  4439     0779                     u3260:
  4440     0779                     l2228:
  4441     0779  09F6               	comf	___aldiv@dividend,f
  4442     077A  09F7               	comf	___aldiv@dividend+1,f
  4443     077B  09F8               	comf	___aldiv@dividend+2,f
  4444     077C  09F9               	comf	___aldiv@dividend+3,f
  4445     077D  0AF6               	incf	___aldiv@dividend,f
  4446     077E  1903               	skipnz
  4447     077F  0AF7               	incf	___aldiv@dividend+1,f
  4448     0780  1903               	skipnz
  4449     0781  0AF8               	incf	___aldiv@dividend+2,f
  4450     0782  1903               	skipnz
  4451     0783  0AF9               	incf	___aldiv@dividend+3,f
  4452     0784                     l2230:
  4453     0784  3001               	movlw	1
  4454     0785  00A0               	movwf	??___aldiv
  4455     0786  0820               	movf	??___aldiv,w
  4456     0787  06A2               	xorwf	___aldiv@sign,f
  4457     0788                     l2232:
  4458     0788  3000               	movlw	0
  4459     0789  00A6               	movwf	___aldiv@quotient+3
  4460     078A  3000               	movlw	0
  4461     078B  00A5               	movwf	___aldiv@quotient+2
  4462     078C  3000               	movlw	0
  4463     078D  00A4               	movwf	___aldiv@quotient+1
  4464     078E  3000               	movlw	0
  4465     078F  00A3               	movwf	___aldiv@quotient
  4466     0790                     l2234:
  4467     0790  0875               	movf	___aldiv@divisor+3,w
  4468     0791  0474               	iorwf	___aldiv@divisor+2,w
  4469     0792  0473               	iorwf	___aldiv@divisor+1,w
  4470     0793  0472               	iorwf	___aldiv@divisor,w
  4471     0794  1903               	skipnz
  4472     0795  2F97               	goto	u3271
  4473     0796  2F98               	goto	u3270
  4474     0797                     u3271:
  4475     0797  2FE5               	goto	l2254
  4476     0798                     u3270:
  4477     0798                     l2236:
  4478     0798  01A1               	clrf	___aldiv@counter
  4479     0799  0AA1               	incf	___aldiv@counter,f
  4480     079A  2FA8               	goto	l2240
  4481     079B                     l2238:
  4482     079B  3001               	movlw	1
  4483     079C  00A0               	movwf	??___aldiv
  4484     079D                     u3285:
  4485     079D  1003               	clrc
  4486     079E  0DF2               	rlf	___aldiv@divisor,f
  4487     079F  0DF3               	rlf	___aldiv@divisor+1,f
  4488     07A0  0DF4               	rlf	___aldiv@divisor+2,f
  4489     07A1  0DF5               	rlf	___aldiv@divisor+3,f
  4490     07A2  0BA0               	decfsz	??___aldiv,f
  4491     07A3  2F9D               	goto	u3285
  4492     07A4  3001               	movlw	1
  4493     07A5  00A0               	movwf	??___aldiv
  4494     07A6  0820               	movf	??___aldiv,w
  4495     07A7  07A1               	addwf	___aldiv@counter,f
  4496     07A8                     l2240:
  4497     07A8  1FF5               	btfss	___aldiv@divisor+3,7
  4498     07A9  2FAB               	goto	u3291
  4499     07AA  2FAC               	goto	u3290
  4500     07AB                     u3291:
  4501     07AB  2F9B               	goto	l2238
  4502     07AC                     u3290:
  4503     07AC                     l2242:
  4504     07AC  3001               	movlw	1
  4505     07AD  00A0               	movwf	??___aldiv
  4506     07AE                     u3305:
  4507     07AE  1003               	clrc
  4508     07AF  0DA3               	rlf	___aldiv@quotient,f
  4509     07B0  0DA4               	rlf	___aldiv@quotient+1,f
  4510     07B1  0DA5               	rlf	___aldiv@quotient+2,f
  4511     07B2  0DA6               	rlf	___aldiv@quotient+3,f
  4512     07B3  0BA0               	decfsz	??___aldiv,f
  4513     07B4  2FAE               	goto	u3305
  4514     07B5                     l2244:
  4515     07B5  0875               	movf	___aldiv@divisor+3,w
  4516     07B6  0279               	subwf	___aldiv@dividend+3,w
  4517     07B7  1D03               	skipz
  4518     07B8  2FC3               	goto	u3315
  4519     07B9  0874               	movf	___aldiv@divisor+2,w
  4520     07BA  0278               	subwf	___aldiv@dividend+2,w
  4521     07BB  1D03               	skipz
  4522     07BC  2FC3               	goto	u3315
  4523     07BD  0873               	movf	___aldiv@divisor+1,w
  4524     07BE  0277               	subwf	___aldiv@dividend+1,w
  4525     07BF  1D03               	skipz
  4526     07C0  2FC3               	goto	u3315
  4527     07C1  0872               	movf	___aldiv@divisor,w
  4528     07C2  0276               	subwf	___aldiv@dividend,w
  4529     07C3                     u3315:
  4530     07C3  1C03               	skipc
  4531     07C4  2FC6               	goto	u3311
  4532     07C5  2FC7               	goto	u3310
  4533     07C6                     u3311:
  4534     07C6  2FD6               	goto	l2250
  4535     07C7                     u3310:
  4536     07C7                     l2246:
  4537     07C7  0872               	movf	___aldiv@divisor,w
  4538     07C8  02F6               	subwf	___aldiv@dividend,f
  4539     07C9  0873               	movf	___aldiv@divisor+1,w
  4540     07CA  1C03               	skipc
  4541     07CB  0F73               	incfsz	___aldiv@divisor+1,w
  4542     07CC  02F7               	subwf	___aldiv@dividend+1,f
  4543     07CD  0874               	movf	___aldiv@divisor+2,w
  4544     07CE  1C03               	skipc
  4545     07CF  0F74               	incfsz	___aldiv@divisor+2,w
  4546     07D0  02F8               	subwf	___aldiv@dividend+2,f
  4547     07D1  0875               	movf	___aldiv@divisor+3,w
  4548     07D2  1C03               	skipc
  4549     07D3  0F75               	incfsz	___aldiv@divisor+3,w
  4550     07D4  02F9               	subwf	___aldiv@dividend+3,f
  4551     07D5                     l2248:
  4552     07D5  1423               	bsf	___aldiv@quotient,0
  4553     07D6                     l2250:
  4554     07D6  3001               	movlw	1
  4555     07D7                     u3325:
  4556     07D7  1003               	clrc
  4557     07D8  0CF5               	rrf	___aldiv@divisor+3,f
  4558     07D9  0CF4               	rrf	___aldiv@divisor+2,f
  4559     07DA  0CF3               	rrf	___aldiv@divisor+1,f
  4560     07DB  0CF2               	rrf	___aldiv@divisor,f
  4561     07DC  3EFF               	addlw	-1
  4562     07DD  1D03               	skipz
  4563     07DE  2FD7               	goto	u3325
  4564     07DF                     l2252:
  4565     07DF  3001               	movlw	1
  4566     07E0  02A1               	subwf	___aldiv@counter,f
  4567     07E1  1D03               	btfss	3,2
  4568     07E2  2FE4               	goto	u3331
  4569     07E3  2FE5               	goto	u3330
  4570     07E4                     u3331:
  4571     07E4  2FAC               	goto	l2242
  4572     07E5                     u3330:
  4573     07E5                     l2254:
  4574     07E5  0822               	movf	___aldiv@sign,w
  4575     07E6  1903               	btfsc	3,2
  4576     07E7  2FE9               	goto	u3341
  4577     07E8  2FEA               	goto	u3340
  4578     07E9                     u3341:
  4579     07E9  2FF5               	goto	l2258
  4580     07EA                     u3340:
  4581     07EA                     l2256:
  4582     07EA  09A3               	comf	___aldiv@quotient,f
  4583     07EB  09A4               	comf	___aldiv@quotient+1,f
  4584     07EC  09A5               	comf	___aldiv@quotient+2,f
  4585     07ED  09A6               	comf	___aldiv@quotient+3,f
  4586     07EE  0AA3               	incf	___aldiv@quotient,f
  4587     07EF  1903               	skipnz
  4588     07F0  0AA4               	incf	___aldiv@quotient+1,f
  4589     07F1  1903               	skipnz
  4590     07F2  0AA5               	incf	___aldiv@quotient+2,f
  4591     07F3  1903               	skipnz
  4592     07F4  0AA6               	incf	___aldiv@quotient+3,f
  4593     07F5                     l2258:
  4594     07F5  0826               	movf	___aldiv@quotient+3,w
  4595     07F6  00F5               	movwf	?___aldiv+3
  4596     07F7  0825               	movf	___aldiv@quotient+2,w
  4597     07F8  00F4               	movwf	?___aldiv+2
  4598     07F9  0824               	movf	___aldiv@quotient+1,w
  4599     07FA  00F3               	movwf	?___aldiv+1
  4600     07FB  0823               	movf	___aldiv@quotient,w
  4601     07FC  00F2               	movwf	?___aldiv
  4602     07FD                     l389:
  4603     07FD  0008               	return
  4604     07FE                     __end_of___aldiv:
  4605                           
  4606                           	psect	text17
  4607     0D64                     __ptext17:	
  4608 ;; *************** function _external *****************
  4609 ;; Defined at:
  4610 ;;		line 122 in file "WIPLOZ.c"
  4611 ;; Parameters:    Size  Location     Type
  4612 ;;		None
  4613 ;; Auto vars:     Size  Location     Type
  4614 ;;		None
  4615 ;; Return value:  Size  Location     Type
  4616 ;;                  1    wreg      void 
  4617 ;; Registers used:
  4618 ;;		None
  4619 ;; Tracked objects:
  4620 ;;		On entry : 0/0
  4621 ;;		On exit  : 0/0
  4622 ;;		Unchanged: 0/0
  4623 ;; Data sizes:     COMMON   BANK0   BANK1   BANK3   BANK2
  4624 ;;      Params:         0       0       0       0       0
  4625 ;;      Locals:         0       0       0       0       0
  4626 ;;      Temps:          2       0       0       0       0
  4627 ;;      Totals:         2       0       0       0       0
  4628 ;;Total ram usage:        2 bytes
  4629 ;; Hardware stack levels used: 1
  4630 ;; This function calls:
  4631 ;;		Nothing
  4632 ;; This function is called by:
  4633 ;;		Interrupt level 1
  4634 ;; This function uses a non-reentrant model
  4635 ;;
  4636                           
  4637     0D64                     _external:	
  4638                           ;psect for function _external
  4639                           
  4640     0D64                     i1l1306:
  4641                           
  4642                           ;WIPLOZ.c: 123: if(INTCONbits.INTF == 1){
  4643     0D64  1C8B               	btfss	11,1	;volatile
  4644     0D65  2D67               	goto	u117_21
  4645     0D66  2D68               	goto	u117_20
  4646     0D67                     u117_21:
  4647     0D67  2D69               	goto	i1l113
  4648     0D68                     u117_20:
  4649     0D68                     i1l1308:
  4650                           
  4651                           ;WIPLOZ.c: 129: INTCONbits.INTF = 0;
  4652     0D68  108B               	bcf	11,1	;volatile
  4653     0D69                     i1l113:
  4654     0D69  0871               	movf	??_external+1,w
  4655     0D6A  008A               	movwf	10
  4656     0D6B  0E70               	swapf	??_external,w
  4657     0D6C  0083               	movwf	3
  4658     0D6D  0EFE               	swapf	btemp,f
  4659     0D6E  0E7E               	swapf	btemp,w
  4660     0D6F  0009               	retfie
  4661     0D70                     __end_of_external:
  4662     007E                     btemp	set	126	;btemp
  4663     007E                     wtemp0	set	126
  4664                           
  4665                           	psect	intentry
  4666     0004                     __pintentry:	
  4667                           ;incstack = 0
  4668                           ; Regs used in _external: []
  4669                           
  4670     0004                     interrupt_function:
  4671     007E                     saved_w	set	btemp
  4672     0004  00FE               	movwf	btemp
  4673     0005  0E03               	swapf	3,w
  4674     0006  00F0               	movwf	??_external
  4675     0007  080A               	movf	10,w
  4676     0008  00F1               	movwf	??_external+1
  4677     0009  120A  158A  2D64   	ljmp	_external
  4678                           
  4679                           	psect	idloc
  4680                           
  4681                           ;Config register IDLOC0 @ 0x2000
  4682                           ;	unspecified, using default values
  4683     2000                     	org	8192
  4684     2000  3FFF               	dw	16383
  4685                           
  4686                           ;Config register IDLOC1 @ 0x2001
  4687                           ;	unspecified, using default values
  4688     2001                     	org	8193
  4689     2001  3FFF               	dw	16383
  4690                           
  4691                           ;Config register IDLOC2 @ 0x2002
  4692                           ;	unspecified, using default values
  4693     2002                     	org	8194
  4694     2002  3FFF               	dw	16383
  4695                           
  4696                           ;Config register IDLOC3 @ 0x2003
  4697                           ;	unspecified, using default values
  4698     2003                     	org	8195
  4699     2003  3FFF               	dw	16383
  4700                           
  4701                           	psect	config
  4702                           
  4703                           ;Config register CONFIG @ 0x2007
  4704                           ;	Oscillator Selection bits
  4705                           ;	FOSC = XT, XT oscillator
  4706                           ;	Watchdog Timer Enable bit
  4707                           ;	WDTE = OFF, WDT disabled
  4708                           ;	Power-up Timer Enable bit
  4709                           ;	PWRTE = OFF, PWRT disabled
  4710                           ;	Brown-out Reset Enable bit
  4711                           ;	BOREN = OFF, BOR disabled
  4712                           ;	Low-Voltage (Single-Supply) In-Circuit Serial Programming Enable bit
  4713                           ;	LVP = OFF, RB3 is digital I/O, HV on MCLR must be used for programming
  4714                           ;	Data EEPROM Memory Code Protection bit
  4715                           ;	CPD = OFF, Data EEPROM code protection off
  4716                           ;	Flash Program Memory Write Enable bits
  4717                           ;	WRT = OFF, Write protection off; all program memory may be written to by EECON control
  4718                           ;	In-Circuit Debugger Mode bit
  4719                           ;	DEBUG = 0x1, unprogrammed default
  4720                           ;	Flash Program Memory Code Protection bit
  4721                           ;	CP = OFF, Code protection off
  4722     2007                     	org	8199
  4723     2007  3F39               	dw	16185

Data Sizes:
    Strings     0
    Constant    0
    Data        28
    BSS         58
    Persistent  0
    Stack       0

Auto Spaces:
    Space          Size  Autos    Used
    COMMON           14     10      12
    BANK0            80     79      79
    BANK1            80     18      78
    BANK3            96      3      27
    BANK2            96      0       0

Pointer List with Targets:

    None.

Critical Paths under _main in COMMON

    _PWM2_Init->___aldiv
    _PWM1_Init->___aldiv
    _PWM_Max_Duty->___aldiv

Critical Paths under _external in COMMON

    None.

Critical Paths under _main in BANK0

    _PWM2_Init->___aldiv
    _PWM2_Duty->___flmul
    _PWM1_Init->___aldiv
    _PWM1_Duty->___flmul
    ___xxtofl->_PWM_Max_Duty
    ___fltol->___flmul
    ___flmul->___fldiv
    ___fldiv->___xxtofl
    _PWM_Max_Duty->___aldiv

Critical Paths under _external in BANK0

    None.

Critical Paths under _main in BANK1

    _main->_motores
    _motores->_PWM1_Duty
    _motores->_PWM2_Duty
    _PWM_ST->_PWM1_Duty
    _PWM_ST->_PWM2_Duty
    _PWM2_Duty->___fltol
    _PWM1_Duty->___fltol

Critical Paths under _external in BANK1

    None.

Critical Paths under _main in BANK3

    None.

Critical Paths under _external in BANK3

    None.

Critical Paths under _main in BANK2

    None.

Critical Paths under _external in BANK2

    None.

Call Graph Tables:

 ---------------------------------------------------------------------------------
 (Depth) Function   	        Calls       Base Space   Used Autos Params    Refs
 ---------------------------------------------------------------------------------
 (0) _main                                                 3     3      0   55150
                                              0 BANK3      3     3      0
                          _PWM1_Duty
                          _PWM2_Duty
                             _PWM_ST
                             _inicia
                            _motores
 ---------------------------------------------------------------------------------
 (1) _motores                                              4     0      4   18494
                                             14 BANK1      4     0      4
                          _PWM1_Duty
                          _PWM2_Duty
 ---------------------------------------------------------------------------------
 (1) _inicia                                               0     0      0       0
 ---------------------------------------------------------------------------------
 (1) _PWM_ST                                               0     0      0   19614
                          _PWM1_Duty
                          _PWM1_Init
                         _PWM1_Start
                          _PWM2_Duty
                          _PWM2_Init
                         _PWM2_Start
 ---------------------------------------------------------------------------------
 (2) _PWM2_Start                                           0     0      0       0
 ---------------------------------------------------------------------------------
 (2) _PWM2_Init                                            8     4      4    1286
                                              7 BANK0      8     4      4
                            ___aldiv
 ---------------------------------------------------------------------------------
 (2) _PWM2_Duty                                            4     2      2    8521
                                             10 BANK1      4     2      2
                       _PWM_Max_Duty
                            ___fldiv
                            ___flmul
                            ___fltol
                           ___xxtofl
 ---------------------------------------------------------------------------------
 (2) _PWM1_Start                                           0     0      0       0
 ---------------------------------------------------------------------------------
 (2) _PWM1_Init                                            8     4      4    1286
                                              7 BANK0      8     4      4
                            ___aldiv
 ---------------------------------------------------------------------------------
 (2) _PWM1_Duty                                            4     2      2    8521
                                             10 BANK1      4     2      2
                       _PWM_Max_Duty
                            ___fldiv
                            ___flmul
                            ___fltol
                           ___xxtofl
 ---------------------------------------------------------------------------------
 (3) ___xxtofl                                            14    10      4     854
                                             13 BANK0     14    10      4
                       _PWM_Max_Duty (ARG)
 ---------------------------------------------------------------------------------
 (3) ___fltol                                             10     6      4     607
                                              0 BANK1     10     6      4
                       _PWM_Max_Duty (ARG)
                            ___fldiv (ARG)
                            ___flmul (ARG)
                           ___xxtofl (ARG)
 ---------------------------------------------------------------------------------
 (3) ___flmul                                             26    18      8    4073
                                             53 BANK0     26    18      8
                       _PWM_Max_Duty (ARG)
                          __Umul8_16
                            ___fldiv (ARG)
                           ___xxtofl (ARG)
 ---------------------------------------------------------------------------------
 (4) __Umul8_16                                            9     7      2     980
                                              2 COMMON     4     2      2
                                              0 BANK0      5     5      0
 ---------------------------------------------------------------------------------
 (3) ___fldiv                                             26    18      8    1425
                                             27 BANK0     26    18      8
                           ___xxtofl (ARG)
 ---------------------------------------------------------------------------------
 (3) _PWM_Max_Duty                                         6     4      2    1165
                                              7 BANK0      6     4      2
                            ___aldiv
 ---------------------------------------------------------------------------------
 (4) ___aldiv                                             15     7      8    1165
                                              2 COMMON     8     0      8
                                              0 BANK0      7     7      0
 ---------------------------------------------------------------------------------
 Estimated maximum stack depth 4
 ---------------------------------------------------------------------------------
 (Depth) Function   	        Calls       Base Space   Used Autos Params    Refs
 ---------------------------------------------------------------------------------
 (5) _external                                             2     2      0       0
                                              0 COMMON     2     2      0
 ---------------------------------------------------------------------------------
 Estimated maximum stack depth 5
 ---------------------------------------------------------------------------------

 Call Graph Graphs:

 _main (ROOT)
   _PWM1_Duty
     _PWM_Max_Duty
       ___aldiv
     ___fldiv
       ___xxtofl (ARG)
         _PWM_Max_Duty (ARG)
     ___flmul
       _PWM_Max_Duty (ARG)
       __Umul8_16 (ARG)
       ___fldiv (ARG)
       ___xxtofl (ARG)
     ___fltol
       _PWM_Max_Duty (ARG)
       ___fldiv (ARG)
       ___flmul (ARG)
       ___xxtofl (ARG)
     ___xxtofl
   _PWM2_Duty
     _PWM_Max_Duty
     ___fldiv
     ___flmul
     ___fltol
     ___xxtofl
   _PWM_ST
     _PWM1_Duty
     _PWM1_Init
       ___aldiv
     _PWM1_Start
     _PWM2_Duty
     _PWM2_Init
       ___aldiv
     _PWM2_Start
   _inicia
   _motores
     _PWM1_Duty
     _PWM2_Duty

 _external (ROOT)

 Address spaces:
Name               Size   Autos  Total    Cost      Usage
BANK3               60      3      1B       9       28.1%
BITBANK3            60      0       0       8        0.0%
SFR3                 0      0       0       4        0.0%
BITSFR3              0      0       0       4        0.0%
BANK2               60      0       0      11        0.0%
BITBANK2            60      0       0      10        0.0%
SFR2                 0      0       0       5        0.0%
BITSFR2              0      0       0       5        0.0%
BANK1               50     12      4E       7       97.5%
BITBANK1            50      0       0       6        0.0%
SFR1                 0      0       0       2        0.0%
BITSFR1              0      0       0       2        0.0%
BANK0               50     4F      4F       5       98.8%
BITBANK0            50      0       0       4        0.0%
SFR0                 0      0       0       1        0.0%
BITSFR0              0      0       0       1        0.0%
COMMON               E      A       C       1       85.7%
BITCOMMON            E      0       0       0        0.0%
CODE                 0      0       0       0        0.0%
DATA                 0      0      C4      12        0.0%
ABS                  0      0      C4       3        0.0%
NULL                 0      0       0       0        0.0%
STACK                0      0       0       2        0.0%
EEDATA             100      0       0       0        0.0%


Microchip Technology PIC Macro Assembler V2.40 build 20220703182018 
Symbol Table                                                                                   Sun Mar 19 12:13:41 2023

           ___fldiv@aexp 0054             ___fldiv@bexp 0053                        _m 00B4  
                      _y 00C2                        pc 0002             ___fldiv@sign 004C  
                     _KD 0194                       _KI 0190                       _KP 0198  
                     fsr 0004      __Umul8_16@word_mpld 0022                      l103 0ED5  
                    l105 0EF6                      l202 0E18                      l107 0F0C  
                    l213 06BA                      l205 0E4F                      l222 0D63  
                    l216 0D5A                      l209 0760                      l154 0DB8  
                    l500 0F84                      l228 0EC9                      l510 0F84  
                    l507 0F6F                      l199 0E8C                      l703 0387  
                    l722 0DCF                      l379 0775                      l715 037B  
                    l724 0DE1                      l389 07FD                      l709 02F7  
                    l663 03DE                      l760 05DE                      l665 055A  
                    l761 05EA                      l753 05C2                      l747 057F  
                    l685 0542                      l749 0614                      l687 0550  
                    l679 04D0                      _PR2 0092                      _vel 00E8  
                    _pos 00A4                      indf 0000             _proporcional 007A  
           ___flmul@aexp 0063             ___flmul@bexp 0068             ___flmul@sign 0062  
           ___flmul@temp 006D             ___flmul@prod 0069             ___fltol@exp1 00D9  
                   l2230 0784                     l2222 0761                     l2310 0F64  
                   l2302 0F4B                     l2240 07A8                     l2232 0788  
                   l2224 0764                     l1600 0470                     l2400 02AC  
                   l2320 004C                     l2312 0F74                     l2304 0F5D  
                   l1264 0D52                     l2250 07D6                     l2242 07AC  
                   l2234 0790                     l2226 0768                     l1610 0491  
                   l1602 0471                     l1530 0395                     l2410 02D1  
                   l2402 02BA                     l2330 0063                     l2322 0050  
                   l2314 0F79                     l1266 0D5B                     l1290 0DAE  
                   l2252 07DF                     l2244 07B5                     l2236 0798  
                   l2228 0779                     l1620 04AA                     l1612 0493  
                   l1604 047F                     l1540 03A9                     l1532 0396  
                   l1524 0388                     l2420 02F4                     l2404 02C3  
                   l2412 02D7                     l2340 007A                     l2332 0065  
                   l2324 0051                     l2316 0043                     l2500 0EB5  
                   l1292 0DB7                     l1284 0D9F                     l2246 07C7  
                   l2238 079B                     l2254 07E5                     l1630 04CD  
                   l1614 049C                     l1622 04B0                     l1606 0483  
                   l1550 03C0                     l1534 039B                     l1542 03AB  
                   l1526 038D                     l2270 0DD8                     l2262 0DBC  
                   l2430 0313                     l2414 02DB                     l2406 02C7  
                   l2350 008F                     l2342 007B                     l2334 006D  
                   l2326 0056                     l2318 0048                     l2502 0EBF  
                   l1286 0DA5                     l2256 07EA                     l2248 07D5  
                   l1640 04EC                     l1624 04B4                     l1616 04A0  
                   l1608 0489                     l1560 03D4                     l1552 03C1  
                   l1544 03B3                     l1536 03A0                     l1528 0391  
                   l2272 0DDD                     l2264 0DBE                     l2440 0359  
                   l2432 032C                     l2424 02FC                     l2416 02DC  
                   l2408 02C8                     l2360 00AA                     l2352 0097  
                   l2344 0080                     l2336 0072                     l2328 005B  
                   l2280 0F0D                     l2504 0EC4                     l1288 0DAD  
                   l2258 07F5                     l1650 0535                     l1642 0505  
                   l1634 04D5                     l1626 04B5                     l1618 04A1  
                   l1554 03C6                     l1562 03D6                     l1546 03B8  
                   l1538 03A8                     l2266 0DC5                     l2450 0376  
                   l2442 0363                     l2426 0301                     l2434 0332  
                   l2418 02E0                     l2370 0126                     l2362 00B8  
                   l2354 009C                     l2346 0085                     l2338 0076  
                   l2290 0F35                     l2282 0F18                     l1810 0567  
                   l2276 0E50                     l1660 054C                     l1652 0539  
                   l1636 04DA                     l1644 050B                     l1628 04B9  
                   l1580 041F                     l1564 03E6                     l1572 03FF  
                   l1556 03CB                     l1548 03BC                     l2268 0DC9  
                   l2452 037F                     l2444 0365                     l2436 033F  
                   l2428 030F                     l2380 0192                     l2372 0142  
                   l2364 00C5                     l2356 00A1                     l2348 008D  
                   l2292 0F3D                     l1820 0593                     l1812 0577  
                   l2460 0741                     l1654 0541                     l1646 0518  
                   l1638 04E8                     l1590 043E                     l1582 0427  
                   l1574 0404                     l1566 03F2                     l1558 03D3  
                   l2446 0371                     l2438 034A                     l2390 021C  
                   l2382 01A0                     l2374 015E                     l2366 00E0  
                   l2294 0F3F                     l2286 0F21                     l1830 05C9  
                   l1822 05A0                     l1814 0587                     l1806 055E  
                   l2462 0744                     l2470 069B                     l1656 0546  
                   l1648 0526                     l1592 0450                     l1584 042F  
                   l1568 03F6                     l2448 0375                     l2392 022A  
                   l2384 01BD                     l2376 0167                     l2368 00FC  
                   l2296 0F43                     l2288 0F34                     l1840 0602  
                   l1832 05D4                     l1824 05A7                     l1808 0563  
                   l2464 0750                     l2456 06BB                     l2472 069E  
                   l2480 0ECA                     l1658 054A                     l1594 0454  
                   l1586 0437                     l1578 040D                     l2394 0255  
                   l2386 01D4                     l2378 0175                     l1842 0607  
                   l1834 05D8                     l1826 05AB                     l1818 0590  
                   l2458 06C6                     l2474 06AA                     l2466 0615  
                   l2490 0EF1                     l2482 0ED0                     l2570 0F85  
                   l1596 0455                     l1588 0439                     l2396 027B  
                   l2388 01F1                     l1844 060B                     l1836 05E2  
                   l1828 05B9                     l2476 0DE2                     l2468 0620  
                   l2492 0EFA                     l2484 0ED9                     l2580 0FB4  
                   l2572 0F8A                     l1598 045E                     l2398 02A3  
                   l1846 060C                     l1838 05EC                     l2478 0E19  
                   l2494 0F01                     l2486 0EE0                     l2582 0FC2  
                   l2574 0F8F                     l2496 0E8D                     l2488 0EEB  
                   l2584 0FD1                     l2576 0F9A                     l2498 0EAB  
                   l2586 0FDF                     l2578 0FA5                     l2588 0FEE  
                   u2300 0567                     u2301 0566                     u2310 0587  
                   u2311 0586                     u2400 05F7                     u2410 0607  
                   u2330 05A6                     u2411 0606                     u2331 05A5  
                   u1700 0404                     u2420 060B                     u1701 0403  
                   u2421 060A                     u2405 05F2                     u2325 0598  
                   u3310 07C7                     u1710 043E                     u1630 0395  
                   u2350 05C8                     u3311 07C6                     u1711 043D  
                   u1631 0394                     u2351 05C7                     u1800 04A0  
                   u1640 039B                     u3400 0F2F                     u3305 07AE  
                   u1801 049F                     u1641 039A                     u2345 05BA  
                   u3330 07E5                     u3250 0768                     u1650 03A0  
                   u3410 0F43                     u2370 05D8                     u2290 0563  
                   u3331 07E4                     u3315 07C3                     u3251 0767  
                   u1651 039F                     u3411 0F42                     u2371 05D7  
                   u2291 0562                     u3340 07EA                     u3260 0779  
                   u1900 0535                     u1820 04B4                     u1740 0454  
                   u1660 03C0                     u3500 0056                     u3420 0F4A  
                   u2380 05DE                     u3341 07E9                     u3325 07D7  
                   u3261 0778                     u1901 0534                     u1821 04B3  
                   u1741 0453                     u1725 0440                     u1661 03BF  
                   u3501 0055                     u3421 0F49                     u3405 0F2A  
                   u2381 05DD                     u2365 05CD                     u3270 0798  
                   u1910 054A                     u1830 04B9                     u1670 03C6  
                   u3350 0DC9                     u3510 005B                     u2390 05E2  
                   u3271 0797                     u1911 0549                     u1831 04B8  
                   u1815 04A3                     u1735 0449                     u1671 03C5  
                   u3351 0DC8                     u3511 005A                     u2391 05E1  
                   u1840 04CD                     u1760 0470                     u1680 03CB  
                   u3520 007A                     u3440 0F5C                     u1905 0531  
                   u1841 04CC                     u1761 046F                     u1681 03CA  
                   u3601 0150                     u3521 0079                     u3441 0F5B  
                   u3290 07AC                     u1850 04D4                     u1770 0489  
                   u1690 03E6                     u3370 0DDD                     u3602 0157  
                   u3530 0080                     u3450 0F63                     u3291 07AB  
                   u1851 04D3                     u1771 0488                     u1755 0457  
                   u1691 03E5                     u3371 0DDC                     u3603 015E  
                   u3531 007F                     u3451 0F62                     u3435 0F4C  
                   u3380 0E6E                     u1860 04DA                     u1780 0491  
                   u3700 0289                     u3540 0085                     u3285 079D  
                   u1861 04D9                     u1781 0490                     u1765 046C  
                   u3365 0DD0                     u3621 0184                     u3541 0084  
                   u4077 0FBC                     u1870 04EC                     u3622 018B  
                   u3550 009C                     u3470 0F74                     u3390 0F18  
                   u1871 04EB                     u3711 0295                     u3631 01AF  
                   u3623 0192                     u3615 0160                     u3551 009B  
                   u3471 0F73                     u3391 0F17                     u4087 0FD9  
                   u1880 04FB                     u3800 0301                     u3712 029C  
                   u3632 01B6                     u3560 00A1                     u3480 0F79  
                   u3385 0E69                     u3801 0300                     u3713 02A3  
                   u3705 0284                     u3633 01BD                     u3561 00A0  
                   u3481 0F78                     u3465 0F66                     u4097 0FF6  
                   u1890 0518                     u3810 0313                     u3490 0050  
                   u1891 0517                     u1795 0495                     u3811 0312  
                   u3651 01E3                     u3571 00EE                     u3491 004F  
                   u3820 0322                     u3740 02C7                     u3652 01EA  
                   u3572 00F5                     u3900 06A7                     u1885 04F6  
                   u3741 02C6                     u3725 02A5                     u3661 020E  
                   u3653 01F1                     u3645 01BF                     u3581 010A  
                   u3573 00FC                     u3901 06A3                     u3830 033F  
                   u3662 0215                     u3582 0111                     u1895 0514  
                   u3831 033E                     u3735 02BC                     u3671 0239  
                   u3663 021C                     u3591 0134                     u3583 0118  
                   u3840 0359                     u3760 02DB                     u3680 0261  
                   u3672 0240                     u3592 013B                     u3920 0DF2  
                   u3841 0358                     u3825 031D                     u3761 02DA  
                   u3673 0247                     u3593 0142                     u3850 0375  
                   u3770 02E0                     u3930 0DFB                     u3914 06AA  
                   u3851 0374                     u3835 033B                     u3771 02DF  
                   u3755 02CA                     u3691 026D                     u3780 02F4  
                   u3692 0274                     u3860 06C6                     u3940 0E29  
                   u3845 0355                     u3781 02F3                     u3693 027B  
                   u3685 025C                     u3861 06C5                     u3925 0DED  
                   u3790 02FB                     u3870 074D                     u3950 0E32  
                   u3791 02FA                     u3871 0749                     u3935 0DF6  
                   u3960 0ED0                     u3945 0E24                     u3961 0ECF  
           _PWM_Max_Duty 0E50                     u3890 0620                     u3970 0EF1  
                   u3891 061F                     u3955 0E2D                     u3971 0EF0  
                   u3884 0750                     _main 0F85                     _freq 00EA  
                   _duty 00C4                     _suma 01A4                     btemp 007E  
                   start 000C          ___fldiv@new_exp 004D            ___fltol@sign1 00D8  
        __end_of___aldiv 07FE                    ?_main 0070                    _CCP1X 00BD  
        __end_of___fldiv 055B                    _CCP1Y 00BC                    _CCP2X 00ED  
                  _CCP2Y 00EC          __end_of___flmul 0388          __end_of___fltol 0F85  
                  i1l113 0D69                    _PORTA 0005                    _PORTB 0006  
                  _PORTC 0007                    _PORTD 0008                    _PORTE 0009  
                  _TRISA 0085                    _TRISB 0086                    _TRISC 0087  
                  _TRISD 0088                    _TRISE 0089              ?_PWM1_Start 0070  
            ?_PWM2_Start 0070                    _sumap 00A8                    pclath 000A  
        __end_of_motores 0F0D                    status 0003                    wtemp0 007E  
        __initialization 000F             __end_of_main 1000                   ??_main 01A8  
                 _ADCON1 009F                   _CCP1M2 00BA                   _CCP1M3 00BB  
                 _CCP2M2 00EA                   _CCP2M3 00EB                   _CCPR1L 0015  
                 _CCPR2L 001B                   i1l1306 0D64                   i1l1308 0D68  
                 u117_20 0D68                   u117_21 0D67                   _TMR2ON 0092  
                 _TRISC1 0439                   _TRISC2 043A                   _PWM_ST 0E8D  
       __end_of___xxtofl 0615        __end_of_PWM1_Init 0E19        __end_of_PWM1_Duty 0761  
      __end_of_PWM2_Init 0E50        __end_of_PWM2_Duty 06BB                ??___aldiv 0020  
              ??___fldiv 0043                ??___flmul 005D                ??___fltol 00D4  
                 _inicia 0D9F                   _error1 00C0                   _error2 00BE  
                 _error3 00BC                   _error4 00BA                   _error5 00B8  
                 _error6 00B6         __end_of_external 0D70                   saved_w 007E  
              ??_motores 007A             ___xxtofl@arg 0037             ___xxtofl@exp 0036  
           ___xxtofl@val 002D  __end_of__initialization 003F               ___fltol@f1 00D0  
         __pcstackCOMMON 0070             __pidataBANK1 0D70             __pidataBANK3 0D7C  
         _OPTION_REGbits 0081               __pbssBANK1 00A0               __pbssBANK3 01A0  
                ?_PWM_ST 0070        __end_of__Umul8_16 0DE2               __pmaintext 0F85  
             __pintentry 0004                  ?_inicia 0070               _derivativo 00B0  
              ?___xxtofl 002D             ??_PWM1_Start 0072             ??_PWM2_Start 0072  
              ?_external 0070                  ___aldiv 0761                  ___fldiv 0388  
                ___flmul 0043                  ___fltol 0F0D       __end_of_PWM1_Start 0D5B  
     __end_of_PWM2_Start 0D64                  __ptext1 0ECA                  __ptext2 0D9F  
                __ptext3 0E8D                  __ptext4 0D5B                  __ptext5 0E19  
                __ptext6 0615                  __ptext7 0D52                  __ptext8 0DE2  
                __ptext9 06BB               ??___xxtofl 0031         ___aldiv@dividend 0076  
                _motores 0ECA                  _poslast 00A0                  clrloop0 0D4B  
   end_of_initialization 003F               ??_external 0070         ___aldiv@quotient 0023  
              _PWM1_Init 0DE2                _PWM1_Duty 06BB                _PWM2_Init 0E19  
              _PWM2_Duty 0615                _PORTAbits 0005                _PORTBbits 0006  
              _PORTCbits 0007                _PORTDbits 0008            ___xxtofl@sign 0035  
            ___fldiv@grs 004F              ___fldiv@rem 0048              ___flmul@grs 0064  
         __end_of_PWM_ST 0ECA               ?_PWM1_Init 0027               ?_PWM1_Duty 00DA  
             ?_PWM2_Init 0027               ?_PWM2_Duty 00DA           __end_of_inicia 0DB9  
    start_initialization 000F            ?_PWM_Max_Duty 0027                 ??_PWM_ST 007A  
             init_fetch0 0D8C                __Umul8_16 0DB9              __pdataBANK1 00E2  
            __pdataBANK3 0190                 ??_inicia 0072                ___fldiv@a 003B  
              ___fldiv@b 003F                ___flmul@a 0059                ___flmul@b 0055  
            __pbssCOMMON 007A                ___latbits 0002            __pcstackBANK0 0020  
          __pcstackBANK1 00D0            __pcstackBANK3 01A8           ??_PWM_Max_Duty 0029  
               ?___aldiv 0072              _diferencial 00AE                 ?___fldiv 003B  
               ?___flmul 0055                 ?___fltol 00D0               ?__Umul8_16 0072  
            ??_PWM1_Init 002B              ??_PWM1_Duty 00DC              ??_PWM2_Init 002B  
            ??_PWM2_Duty 00DC                 ?_motores 00DE                _last_prop 00AC  
        ___aldiv@divisor 0072        interrupt_function 0004          ___aldiv@counter 0021  
          PWM1_Init@freq 0027                clear_ram0 0D4A            PWM1_Duty@duty 00DA  
              _sensoresP 00C6            PWM2_Init@freq 0027            PWM2_Duty@duty 00DA  
            ??__Umul8_16 0074     __end_of_PWM_Max_Duty 0E8D             _TMR2PRESCALE 019C  
               ___xxtofl 055B                 __ptext10 055B                 __ptext11 0F0D  
               __ptext12 0043                 __ptext13 0DB9                 __ptext14 0388  
               __ptext15 0E50                 __ptext16 0761                 __ptext17 0D64  
               _integral 00B2                 _external 0D64                motores@VD 00E0  
              motores@VI 00DE                 _velatras 00E4                 _setpoint 00E2  
               _position 01A0               _INTCONbits 000B                 init_ram0 0D90  
               intlevel1 0000              _veladelante 00E6   __Umul8_16@multiplicand 0072  
           ___aldiv@sign 0022               _PWM1_Start 0D52               _PWM2_Start 0D5B  
   __Umul8_16@multiplier 0024        __Umul8_16@product 0020  
