Microchip MPLAB XC8 Compiler V2.40

Linker command line:

-W-3 \
  --edf=C:\Program Files\Microchip\xc8\v2.40\pic\dat\20220703182018_en.msgs \
  -cn -h+dist/default/production\WIPLOZ.X.production.sym \
  --cmf=dist/default/production\WIPLOZ.X.production.cmf -z -Q16F877A \
  -oC:\Users\IVNIIG~1\AppData\Local\Temp\xcAs9p4.4 --defsym=__MPLAB_BUILD=1 \
  --fixupoverflow=error -Mdist/default/production/WIPLOZ.X.production.map \
  --md=C:\Users\IVNIIG~1\AppData\Local\Temp\xcAs9p4.dat -E1 \
  -ver=XC8 Compiler --acfsm=1493 -ACODE=00h-07FFhx4 -ASTRCODE=00h-01FFFh \
  -ASTRING=00h-0FFhx32 -ACONST=00h-0FFhx32 -AENTRY=00h-0FFhx32 \
  -ACOMMON=070h-07Fh -ABANK0=020h-06Fh -ABANK1=0A0h-0EFh \
  -ABANK2=0110h-016Fh -ABANK3=0190h-01EFh \
  -ARAM=020h-06Fh,0A0h-0EFh,0110h-016Fh,0190h-01EFh \
  -AABS1=020h-07Fh,0A0h-0EFh,0110h-016Fh,0190h-01EFh -ASFR0=00h-01Fh \
  -ASFR1=080h-09Fh -ASFR2=0100h-010Fh -ASFR3=0180h-018Fh \
  -ACONFIG=02007h-02007h -DCONFIG=2 -AIDLOC=02000h-02003h -DIDLOC=2 \
  -AEEDATA=00h-0FFh/02100h -peeprom_data=EEDATA -DEEDATA=2 -DCODE=2 \
  -DSTRCODE=2 -DSTRING=2 -DCONST=2 -DENTRY=2 \
  -preset_vec=00h,intentry=04h,init,end_init -ppowerup=CODE -pcinit=CODE \
  -pfunctab=ENTRY -k C:\Users\IVNIIG~1\AppData\Local\Temp\xcAs9p4.o \
  dist/default/production\WIPLOZ.X.production.o 

Object code version is 3.11

Machine type is 16F877A



                Name                               Link     Load   Length Selector   Space Scale
C:\Users\IVNIIG~1\AppData\Local\Temp\xcAs9p4.o
                end_init                              C        C        3        8       0
                reset_vec                             0        0        3        0       0
                config                             2007     2007        1        0       4
                idloc                              2000     2000        4        0       5
dist/default/production\WIPLOZ.X.production.o
                cinit                                 F        F       34        8       0
                intentry                              4        4        8        8       0
                config                             2007     2007        1        0       4
                idloc                              2000     2000        4        0       5
                text18                              D58      D58        C     1AB0       0
                text17                              761      761       9D        8       0
                text16                              E44      E44       3D     1C88       0
                text15                              388      388      1D3        8       0
                text14                              DAD      DAD       29     1B5A       0
                text13                               43       43      345        8       0
                text12                              F01      F01       78     1E02       0
                text11                              55B      55B       BA        8       0
                text10                              6BB      6BB       A6        8       0
                text9                               DD6      DD6       37     1BAC       0
                text8                               D46      D46        9     1A8C       0
                text7                               615      615       A6        8       0
                text6                               E0D      E0D       37     1C1A       0
                text5                               D4F      D4F        9     1A9E       0
                text4                               E81      E81       3D     1D02       0
                text3                               D93      D93       1A     1B26       0
                text2                               EBE      EBE       43     1D7C       0
                text1                               D37      D37        7     1A6E       0
                maintext                            F79      F79       87     1EF2       0
                cstackBANK0                          20       20       4F       20       1
                cstackCOMMON                         70       70        A       70       1
                cstackBANK1                          D0       D0       12       A0       1
                cstackBANK3                         1A8      1A8        3      190       1
                clrtext                             D3E      D3E        8     1A7C       0
                inittext                            D80      D80       13     1B00       0
                dataBANK3                           190      190       10      190       1
                bssBANK3                            1A0      1A0        8      190       1
                dataBANK1                            E2       E2        C       A0       1
                bssBANK1                             A0       A0       30       A0       1
                bssCOMMON                            7A       7A        2       70       1
                idataBANK3                          D70      D70       10     1AE0       0
                idataBANK1                          D64      D64        C     1AC8       0

TOTAL           Name                               Link     Load   Length     Space
        CLASS   CODE           
                end_init                              C        C        3         0
                cinit                                 F        F       34         0
                intentry                              4        4        8         0
                reset_vec                             0        0        3         0
                text18                              D58      D58        C         0
                text17                              761      761       9D         0
                text16                              E44      E44       3D         0
                text15                              388      388      1D3         0
                text14                              DAD      DAD       29         0
                text13                               43       43      345         0
                text12                              F01      F01       78         0
                text11                              55B      55B       BA         0
                text10                              6BB      6BB       A6         0
                text9                               DD6      DD6       37         0
                text8                               D46      D46        9         0
                text7                               615      615       A6         0
                text6                               E0D      E0D       37         0
                text5                               D4F      D4F        9         0
                text4                               E81      E81       3D         0
                text3                               D93      D93       1A         0
                text2                               EBE      EBE       43         0
                text1                               D37      D37        7         0
                maintext                            F79      F79       87         0
                clrtext                             D3E      D3E        8         0
                inittext                            D80      D80       13         0
                idataBANK3                          D70      D70       10         0
                idataBANK1                          D64      D64        C         0

        CLASS   STRCODE        

        CLASS   STRING         

        CLASS   CONST          

        CLASS   ENTRY          

        CLASS   COMMON         
                cstackCOMMON                         70       70        A         1
                bssCOMMON                            7A       7A        2         1

        CLASS   BANK0          
                cstackBANK0                          20       20       4F         1

        CLASS   BANK1          
                cstackBANK1                          D0       D0       12         1
                dataBANK1                            E2       E2        C         1
                bssBANK1                             A0       A0       30         1

        CLASS   BANK2          

        CLASS   BANK3          
                cstackBANK3                         1A8      1A8        3         1
                dataBANK3                           190      190       10         1
                bssBANK3                            1A0      1A0        8         1

        CLASS   RAM            

        CLASS   ABS1           
                abs_s1                               7E       7E        2         1

        CLASS   SFR0           

        CLASS   SFR1           

        CLASS   SFR2           

        CLASS   SFR3           

        CLASS   CONFIG         
                config                             2007     2007        1         4

        CLASS   IDLOC          
                idloc                              2000     2000        4         5

        CLASS   EEDATA         

        CLASS   STACK          



SEGMENTS        Name                           Load    Length   Top    Selector   Space  Class     Delta

                reset_vec                      000000  000003  000003         0       0  CODE        2
                intentry                       000004  0007FA  0007FE         8       0  CODE        2
                cstackBANK0                    000020  00004F  00006F        20       1  BANK0       1
                cstackCOMMON                   000070  00000C  00007C        70       1  COMMON      1
                bssBANK1                       0000A0  00004E  0000EE        A0       1  BANK1       1
                dataBANK3                      000190  00001B  0001AB       190       1  BANK3       1
                text1                          000D37  000007  000D3E      1A6E       0  CODE        2
                clrtext                        000D3E  000008  000D46      1A7C       0  CODE        2
                text8                          000D46  000009  000D4F      1A8C       0  CODE        2
                text5                          000D4F  000009  000D58      1A9E       0  CODE        2
                text18                         000D58  00000C  000D64      1AB0       0  CODE        2
                idataBANK1                     000D64  00000C  000D70      1AC8       0  CODE        2
                idataBANK3                     000D70  000010  000D80      1AE0       0  CODE        2
                inittext                       000D80  000013  000D93      1B00       0  CODE        2
                text3                          000D93  00001A  000DAD      1B26       0  CODE        2
                text14                         000DAD  000029  000DD6      1B5A       0  CODE        2
                text9                          000DD6  000037  000E0D      1BAC       0  CODE        2
                text6                          000E0D  000037  000E44      1C1A       0  CODE        2
                text16                         000E44  00003D  000E81      1C88       0  CODE        2
                text4                          000E81  00003D  000EBE      1D02       0  CODE        2
                text2                          000EBE  000043  000F01      1D7C       0  CODE        2
                text12                         000F01  000078  000F79      1E02       0  CODE        2
                maintext                       000F79  000087  001000      1EF2       0  CODE        2


UNUSED ADDRESS RANGES

        Name                Unused          Largest block    Delta
        BANK0            006F-006F              1           1
        BANK1            00EE-00EF              2           1
        BANK2            0110-016F             60           1
        BANK3            01AB-01EF             45           1
        CODE             0003-0003              1           2
                         07FE-0D36              2
                         1000-1FFF            800
        COMMON           007C-007D              2           1
        CONST            0003-0003              1           2
                         07FE-0D36            100
                         1000-1FFF            100
        EEDATA           2100-21FF            100           2
        ENTRY            0003-0003              1           2
                         07FE-0D36            100
                         1000-1FFF            100
        RAM              006F-006F              1           1
                         00EE-00EF              2
                         0110-016F             60
                         01AB-01EF             45
        SFR0             0000-001F             20           1
        SFR1             0080-009F             20           1
        SFR2             0100-010F             10           1
        SFR3             0180-018F             10           1
        STRCODE          0003-0003              1           2
                         07FE-0D36            539
                         1000-1FFF           1000
        STRING           0003-0003              1           2
                         07FE-0D36            100
                         1000-1FFF            100

                                  Symbol Table

?_PWM_Max_Duty           cstackBANK0  0027
?__Umul8_16              cstackCOMMON 0072
?___aldiv                cstackCOMMON 0072
?___fldiv                cstackBANK0  003B
?___flmul                cstackBANK0  0055
?___fltol                cstackBANK1  00D0
?___xxtofl               cstackBANK0  002D
PWM1_Duty@duty           cstackBANK1  00DA
PWM1_Init@freq           cstackBANK0  0027
PWM2_Duty@duty           cstackBANK1  00DA
PWM2_Init@freq           cstackBANK0  0027
_ADCON1                  (abs)        009F
_CCP1M2                  (abs)        00BA
_CCP1M3                  (abs)        00BB
_CCP1X                   (abs)        00BD
_CCP1Y                   (abs)        00BC
_CCP2M2                  (abs)        00EA
_CCP2M3                  (abs)        00EB
_CCP2X                   (abs)        00ED
_CCP2Y                   (abs)        00EC
_CCPR1L                  (abs)        0015
_CCPR2L                  (abs)        001B
_INTCONbits              (abs)        000B
_OPTION_REGbits          (abs)        0081
_PORTA                   (abs)        0005
_PORTAbits               (abs)        0005
_PORTB                   (abs)        0006
_PORTBbits               (abs)        0006
_PORTC                   (abs)        0007
_PORTCbits               (abs)        0007
_PORTD                   (abs)        0008
_PORTDbits               (abs)        0008
_PORTE                   (abs)        0009
_PR2                     (abs)        0092
_PWM1_Duty               text10       06BB
_PWM1_Init               text9        0DD6
_PWM1_Start              text8        0D46
_PWM2_Duty               text7        0615
_PWM2_Init               text6        0E0D
_PWM2_Start              text5        0D4F
_PWM_Max_Duty            text16       0E44
_PWM_ST                  text4        0E81
_TMR2ON                  (abs)        0092
_TRISA                   (abs)        0085
_TRISB                   (abs)        0086
_TRISC                   (abs)        0087
_TRISC1                  (abs)        0439
_TRISC2                  (abs)        043A
_TRISD                   (abs)        0088
_TRISE                   (abs)        0089
__Habs1                  abs1         0000
__Hbank0                 bank0        0000
__Hbank1                 bank1        0000
__Hbank2                 bank2        0000
__Hbank3                 bank3        0000
__HbssBANK1              bssBANK1     0000
__HbssBANK3              bssBANK3     0000
__HbssCOMMON             bssCOMMON    0000
__Hcinit                 cinit        0043
__Hclrtext               clrtext      0000
__Hcode                  code         0000
__Hcommon                common       0000
__Hconfig                config       2008
__HcstackBANK0           cstackBANK0  0000
__HcstackBANK1           cstackBANK1  0000
__HcstackBANK3           cstackBANK3  0000
__HcstackCOMMON          cstackCOMMON 0000
__HdataBANK1             dataBANK1    0000
__HdataBANK3             dataBANK3    0000
__Heeprom_data           eeprom_data  0000
__Hend_init              end_init     000F
__Hfunctab               functab      0000
__HidataBANK1            idataBANK1   0000
__HidataBANK3            idataBANK3   0000
__Hidloc                 idloc        2004
__Hinit                  init         000C
__Hinittext              inittext     0000
__Hintentry              intentry     000C
__Hmaintext              maintext     0000
__Hpowerup               powerup      0000
__Hram                   ram          0000
__Hreset_vec             reset_vec    0003
__Hsfr0                  sfr0         0000
__Hsfr1                  sfr1         0000
__Hsfr2                  sfr2         0000
__Hsfr3                  sfr3         0000
__Hspace_0               (abs)        1000
__Hspace_1               (abs)        01AB
__Hspace_2               (abs)        0000
__Hspace_3               (abs)        0000
__Hspace_4               (abs)        400F
__Hstack                 stack        0000
__Hstrings               strings      0000
__Htext                  text         0000
__Labs1                  abs1         0000
__Lbank0                 bank0        0000
__Lbank1                 bank1        0000
__Lbank2                 bank2        0000
__Lbank3                 bank3        0000
__LbssBANK1              bssBANK1     0000
__LbssBANK3              bssBANK3     0000
__LbssCOMMON             bssCOMMON    0000
__Lcinit                 cinit        000F
__Lclrtext               clrtext      0000
__Lcode                  code         0000
__Lcommon                common       0000
__Lconfig                config       0000
__LcstackBANK0           cstackBANK0  0000
__LcstackBANK1           cstackBANK1  0000
__LcstackBANK3           cstackBANK3  0000
__LcstackCOMMON          cstackCOMMON 0000
__LdataBANK1             dataBANK1    0000
__LdataBANK3             dataBANK3    0000
__Leeprom_data           eeprom_data  0000
__Lend_init              end_init     000C
__Lfunctab               functab      0000
__LidataBANK1            idataBANK1   0000
__LidataBANK3            idataBANK3   0000
__Lidloc                 idloc        0000
__Linit                  init         000C
__Linittext              inittext     0000
__Lintentry              intentry     0004
__Lmaintext              maintext     0000
__Lpowerup               powerup      0000
__Lram                   ram          0000
__Lreset_vec             reset_vec    0000
__Lsfr0                  sfr0         0000
__Lsfr1                  sfr1         0000
__Lsfr2                  sfr2         0000
__Lsfr3                  sfr3         0000
__Lspace_0               (abs)        0000
__Lspace_1               (abs)        0000
__Lspace_2               (abs)        0000
__Lspace_3               (abs)        0000
__Lspace_4               (abs)        0000
__Lstack                 stack        0000
__Lstrings               strings      0000
__Ltext                  text         0000
__S0                     (abs)        1000
__S1                     (abs)        01AB
__S3                     (abs)        0000
__Umul8_16               text14       0DAD
__Umul8_16@multiplicand  cstackCOMMON 0072
__Umul8_16@multiplier    cstackBANK0  0024
__Umul8_16@product       cstackBANK0  0020
__Umul8_16@word_mpld     cstackBANK0  0022
___aldiv                 text17       0761
___aldiv@counter         cstackBANK0  0021
___aldiv@dividend        cstackCOMMON 0076
___aldiv@divisor         cstackCOMMON 0072
___aldiv@quotient        cstackBANK0  0023
___aldiv@sign            cstackBANK0  0022
___fldiv                 text15       0388
___fldiv@a               cstackBANK0  003B
___fldiv@aexp            cstackBANK0  0054
___fldiv@b               cstackBANK0  003F
___fldiv@bexp            cstackBANK0  0053
___fldiv@grs             cstackBANK0  004F
___fldiv@new_exp         cstackBANK0  004D
___fldiv@rem             cstackBANK0  0048
___fldiv@sign            cstackBANK0  004C
___flmul                 text13       0043
___flmul@a               cstackBANK0  0059
___flmul@aexp            cstackBANK0  0063
___flmul@b               cstackBANK0  0055
___flmul@bexp            cstackBANK0  0068
___flmul@grs             cstackBANK0  0064
___flmul@prod            cstackBANK0  0069
___flmul@sign            cstackBANK0  0062
___flmul@temp            cstackBANK0  006D
___fltol                 text12       0F01
___fltol@exp1            cstackBANK1  00D9
___fltol@f1              cstackBANK1  00D0
___fltol@sign1           cstackBANK1  00D8
___int_sp                stack        0000
___latbits               (abs)        0002
___sp                    stack        0000
___stackhi               (abs)        0000
___stacklo               (abs)        0000
___xxtofl                text11       055B
___xxtofl@arg            cstackBANK0  0037
___xxtofl@exp            cstackBANK0  0036
___xxtofl@sign           cstackBANK0  0035
___xxtofl@val            cstackBANK0  002D
__end_of_PWM1_Duty       text10       0761
__end_of_PWM1_Init       text9        0E0D
__end_of_PWM1_Start      text8        0D4F
__end_of_PWM2_Duty       text7        06BB
__end_of_PWM2_Init       text6        0E44
__end_of_PWM2_Start      text5        0D58
__end_of_PWM_Max_Duty    text16       0E81
__end_of_PWM_ST          text4        0EBE
__end_of__Umul8_16       text14       0DD6
__end_of___aldiv         text17       07FE
__end_of___fldiv         text15       055B
__end_of___flmul         text13       0388
__end_of___fltol         text12       0F79
__end_of___xxtofl        text11       0615
__end_of__initialization cinit        003F
__end_of_external        text18       0D64
__end_of_inicia          text3        0DAD
__end_of_main            maintext     1000
__end_of_motores         text2        0F01
__end_of_trigger         text1        0D3E
__initialization         cinit        000F
__pbssBANK1              bssBANK1     00A0
__pbssBANK3              bssBANK3     01A0
__pbssCOMMON             bssCOMMON    007A
__pcstackBANK0           cstackBANK0  0020
__pcstackBANK1           cstackBANK1  00D0
__pcstackBANK3           cstackBANK3  01A8
__pcstackCOMMON          cstackCOMMON 0070
__pdataBANK1             dataBANK1    00E2
__pdataBANK3             dataBANK3    0190
__pidataBANK1            idataBANK1   0D64
__pidataBANK3            idataBANK3   0D70
__pintentry              intentry     0004
__pmaintext              maintext     0F79
__ptext1                 text1        0D37
__ptext10                text10       06BB
__ptext11                text11       055B
__ptext12                text12       0F01
__ptext13                text13       0043
__ptext14                text14       0DAD
__ptext15                text15       0388
__ptext16                text16       0E44
__ptext17                text17       0761
__ptext18                text18       0D58
__ptext2                 text2        0EBE
__ptext3                 text3        0D93
__ptext4                 text4        0E81
__ptext5                 text5        0D4F
__ptext6                 text6        0E0D
__ptext7                 text7        0615
__ptext8                 text8        0D46
__ptext9                 text9        0DD6
_derivativo              bssBANK1     00B0
_error1                  bssBANK1     00C0
_error2                  bssBANK1     00BE
_error3                  bssBANK1     00BC
_error4                  bssBANK1     00BA
_error5                  bssBANK1     00B8
_error6                  bssBANK1     00B6
_external                text18       0D58
_freq                    dataBANK1    00EA
_inicia                  text3        0D93
_integral                bssBANK1     00B2
_last_prop               bssBANK1     00AC
_m                       bssBANK1     00B4
_main                    maintext     0F79
_motores                 text2        0EBE
_pos                     bssBANK1     00A4
_poslast                 bssBANK1     00A0
_proporcional            bssCOMMON    007A
_sensoresP               bssBANK1     00C6
_suma                    bssBANK3     01A4
_sumap                   bssBANK1     00A8
_trigger                 text1        0D37
btemp                    (abs)        007E
clear_ram0               clrtext      0D3E
end_of_initialization    cinit        003F
init_fetch0              inittext     0D80
init_ram0                inittext     0D84
interrupt_function       intentry     0004
intlevel0                functab      0000
intlevel1                functab      0000
intlevel2                functab      0000
intlevel3                functab      0000
intlevel4                functab      0000
intlevel5                functab      0000
motores@VD               cstackBANK1  00E0
motores@VI               cstackBANK1  00DE
reset_vec                reset_vec    0000
saved_w                  (abs)        007E
start                    init         000C
start_initialization     cinit        000F
wtemp0                   (abs)        007E


MODULE INFORMATION

Module		Function		Class		Link	Load	Size
C:\Program Files\Microchip\xc8\v2.40\pic\sources\c90\common\fltol.c
		___fltol       		CODE           	0F01	0000	120

C:\Program Files\Microchip\xc8\v2.40\pic\sources\c90\common\fltol.c estimated size: 120

C:\Program Files\Microchip\xc8\v2.40\pic\sources\c90\common\aldiv.c
		___aldiv       		CODE           	0761	0000	157

C:\Program Files\Microchip\xc8\v2.40\pic\sources\c90\common\aldiv.c estimated size: 157

C:\Program Files\Microchip\xc8\v2.40\pic\sources\c90\common\sprcmul.c
		___flmul       		CODE           	0043	0000	837

C:\Program Files\Microchip\xc8\v2.40\pic\sources\c90\common\sprcmul.c estimated size: 837

C:\Program Files\Microchip\xc8\v2.40\pic\sources\c90\common\sprcdiv.c
		___fldiv       		CODE           	0388	0000	467

C:\Program Files\Microchip\xc8\v2.40\pic\sources\c90\common\sprcdiv.c estimated size: 467

C:\Program Files\Microchip\xc8\v2.40\pic\sources\c90\common\Umul8_16.c
		__Umul8_16     		CODE           	0DAD	0000	41

C:\Program Files\Microchip\xc8\v2.40\pic\sources\c90\common\Umul8_16.c estimated size: 41

WIPLOZ.c
		_inicia        		CODE           	0D93	0000	26
		_trigger       		CODE           	0D37	0000	7
		_main          		CODE           	0F79	0000	135
		_external      		CODE           	0D58	0000	12
		_motores       		CODE           	0EBE	0000	67

WIPLOZ.c estimated size: 247

PWM.c
		_PWM1_Start    		CODE           	0D46	0000	9
		_PWM2_Start    		CODE           	0D4F	0000	9
		_PWM_ST        		CODE           	0E81	0000	61
		_PWM1_Init     		CODE           	0DD6	0000	55
		_PWM_Max_Duty  		CODE           	0E44	0000	61
		_PWM2_Init     		CODE           	0E0D	0000	55
		_PWM1_Duty     		CODE           	06BB	0000	166
		_PWM2_Duty     		CODE           	0615	0000	166

PWM.c estimated size: 582

shared
		__initialization		CODE           	000F	0000	48

shared estimated size: 48

C:\Program Files\Microchip\xc8\v2.40\pic\sources\c90\common\xxtofl.c
		___xxtofl      		CODE           	055B	0000	186

C:\Program Files\Microchip\xc8\v2.40\pic\sources\c90\common\xxtofl.c estimated size: 186

